
bomb:     file format elf32-i386


Disassembly of section .init:

080486fc <_init>:
 80486fc:	53                   	push   ebx
 80486fd:	83 ec 08             	sub    esp,0x8
 8048700:	e8 6b 02 00 00       	call   8048970 <__x86.get_pc_thunk.bx>
 8048705:	81 c3 fb 38 00 00    	add    ebx,0x38fb
 804870b:	8b 83 fc ff ff ff    	mov    eax,DWORD PTR [ebx-0x4]
 8048711:	85 c0                	test   eax,eax
 8048713:	74 05                	je     804871a <_init+0x1e>
 8048715:	e8 16 02 00 00       	call   8048930 <strncat@plt+0x10>
 804871a:	83 c4 08             	add    esp,0x8
 804871d:	5b                   	pop    ebx
 804871e:	c3                   	ret    

Disassembly of section .plt:

08048720 <strcmp@plt-0x10>:
 8048720:	ff 35 04 c0 04 08    	push   DWORD PTR ds:0x804c004
 8048726:	ff 25 08 c0 04 08    	jmp    DWORD PTR ds:0x804c008
 804872c:	00 00                	add    BYTE PTR [eax],al
	...

08048730 <strcmp@plt>:
 8048730:	ff 25 0c c0 04 08    	jmp    DWORD PTR ds:0x804c00c
 8048736:	68 00 00 00 00       	push   0x0
 804873b:	e9 e0 ff ff ff       	jmp    8048720 <_init+0x24>

08048740 <printf@plt>:
 8048740:	ff 25 10 c0 04 08    	jmp    DWORD PTR ds:0x804c010
 8048746:	68 08 00 00 00       	push   0x8
 804874b:	e9 d0 ff ff ff       	jmp    8048720 <_init+0x24>

08048750 <inet_pton@plt>:
 8048750:	ff 25 14 c0 04 08    	jmp    DWORD PTR ds:0x804c014
 8048756:	68 10 00 00 00       	push   0x10
 804875b:	e9 c0 ff ff ff       	jmp    8048720 <_init+0x24>

08048760 <fgets@plt>:
 8048760:	ff 25 18 c0 04 08    	jmp    DWORD PTR ds:0x804c018
 8048766:	68 18 00 00 00       	push   0x18
 804876b:	e9 b0 ff ff ff       	jmp    8048720 <_init+0x24>

08048770 <time@plt>:
 8048770:	ff 25 1c c0 04 08    	jmp    DWORD PTR ds:0x804c01c
 8048776:	68 20 00 00 00       	push   0x20
 804877b:	e9 a0 ff ff ff       	jmp    8048720 <_init+0x24>

08048780 <signal@plt>:
 8048780:	ff 25 20 c0 04 08    	jmp    DWORD PTR ds:0x804c020
 8048786:	68 28 00 00 00       	push   0x28
 804878b:	e9 90 ff ff ff       	jmp    8048720 <_init+0x24>

08048790 <sleep@plt>:
 8048790:	ff 25 24 c0 04 08    	jmp    DWORD PTR ds:0x804c024
 8048796:	68 30 00 00 00       	push   0x30
 804879b:	e9 80 ff ff ff       	jmp    8048720 <_init+0x24>

080487a0 <popen@plt>:
 80487a0:	ff 25 28 c0 04 08    	jmp    DWORD PTR ds:0x804c028
 80487a6:	68 38 00 00 00       	push   0x38
 80487ab:	e9 70 ff ff ff       	jmp    8048720 <_init+0x24>

080487b0 <__stack_chk_fail@plt>:
 80487b0:	ff 25 2c c0 04 08    	jmp    DWORD PTR ds:0x804c02c
 80487b6:	68 40 00 00 00       	push   0x40
 80487bb:	e9 60 ff ff ff       	jmp    8048720 <_init+0x24>

080487c0 <htons@plt>:
 80487c0:	ff 25 30 c0 04 08    	jmp    DWORD PTR ds:0x804c030
 80487c6:	68 48 00 00 00       	push   0x48
 80487cb:	e9 50 ff ff ff       	jmp    8048720 <_init+0x24>

080487d0 <fwrite@plt>:
 80487d0:	ff 25 34 c0 04 08    	jmp    DWORD PTR ds:0x804c034
 80487d6:	68 50 00 00 00       	push   0x50
 80487db:	e9 40 ff ff ff       	jmp    8048720 <_init+0x24>

080487e0 <malloc@plt>:
 80487e0:	ff 25 38 c0 04 08    	jmp    DWORD PTR ds:0x804c038
 80487e6:	68 58 00 00 00       	push   0x58
 80487eb:	e9 30 ff ff ff       	jmp    8048720 <_init+0x24>

080487f0 <puts@plt>:
 80487f0:	ff 25 3c c0 04 08    	jmp    DWORD PTR ds:0x804c03c
 80487f6:	68 60 00 00 00       	push   0x60
 80487fb:	e9 20 ff ff ff       	jmp    8048720 <_init+0x24>

08048800 <exit@plt>:
 8048800:	ff 25 40 c0 04 08    	jmp    DWORD PTR ds:0x804c040
 8048806:	68 68 00 00 00       	push   0x68
 804880b:	e9 10 ff ff ff       	jmp    8048720 <_init+0x24>

08048810 <pclose@plt>:
 8048810:	ff 25 44 c0 04 08    	jmp    DWORD PTR ds:0x804c044
 8048816:	68 70 00 00 00       	push   0x70
 804881b:	e9 00 ff ff ff       	jmp    8048720 <_init+0x24>

08048820 <strftime@plt>:
 8048820:	ff 25 48 c0 04 08    	jmp    DWORD PTR ds:0x804c048
 8048826:	68 78 00 00 00       	push   0x78
 804882b:	e9 f0 fe ff ff       	jmp    8048720 <_init+0x24>

08048830 <localtime@plt>:
 8048830:	ff 25 4c c0 04 08    	jmp    DWORD PTR ds:0x804c04c
 8048836:	68 80 00 00 00       	push   0x80
 804883b:	e9 e0 fe ff ff       	jmp    8048720 <_init+0x24>

08048840 <srand@plt>:
 8048840:	ff 25 50 c0 04 08    	jmp    DWORD PTR ds:0x804c050
 8048846:	68 88 00 00 00       	push   0x88
 804884b:	e9 d0 fe ff ff       	jmp    8048720 <_init+0x24>

08048850 <strlen@plt>:
 8048850:	ff 25 54 c0 04 08    	jmp    DWORD PTR ds:0x804c054
 8048856:	68 90 00 00 00       	push   0x90
 804885b:	e9 c0 fe ff ff       	jmp    8048720 <_init+0x24>

08048860 <__libc_start_main@plt>:
 8048860:	ff 25 58 c0 04 08    	jmp    DWORD PTR ds:0x804c058
 8048866:	68 98 00 00 00       	push   0x98
 804886b:	e9 b0 fe ff ff       	jmp    8048720 <_init+0x24>

08048870 <write@plt>:
 8048870:	ff 25 5c c0 04 08    	jmp    DWORD PTR ds:0x804c05c
 8048876:	68 a0 00 00 00       	push   0xa0
 804887b:	e9 a0 fe ff ff       	jmp    8048720 <_init+0x24>

08048880 <memset@plt>:
 8048880:	ff 25 60 c0 04 08    	jmp    DWORD PTR ds:0x804c060
 8048886:	68 a8 00 00 00       	push   0xa8
 804888b:	e9 90 fe ff ff       	jmp    8048720 <_init+0x24>

08048890 <snprintf@plt>:
 8048890:	ff 25 64 c0 04 08    	jmp    DWORD PTR ds:0x804c064
 8048896:	68 b0 00 00 00       	push   0xb0
 804889b:	e9 80 fe ff ff       	jmp    8048720 <_init+0x24>

080488a0 <rand@plt>:
 80488a0:	ff 25 68 c0 04 08    	jmp    DWORD PTR ds:0x804c068
 80488a6:	68 b8 00 00 00       	push   0xb8
 80488ab:	e9 70 fe ff ff       	jmp    8048720 <_init+0x24>

080488b0 <sscanf@plt>:
 80488b0:	ff 25 6c c0 04 08    	jmp    DWORD PTR ds:0x804c06c
 80488b6:	68 c0 00 00 00       	push   0xc0
 80488bb:	e9 60 fe ff ff       	jmp    8048720 <_init+0x24>

080488c0 <atoi@plt>:
 80488c0:	ff 25 70 c0 04 08    	jmp    DWORD PTR ds:0x804c070
 80488c6:	68 c8 00 00 00       	push   0xc8
 80488cb:	e9 50 fe ff ff       	jmp    8048720 <_init+0x24>

080488d0 <socket@plt>:
 80488d0:	ff 25 74 c0 04 08    	jmp    DWORD PTR ds:0x804c074
 80488d6:	68 d0 00 00 00       	push   0xd0
 80488db:	e9 40 fe ff ff       	jmp    8048720 <_init+0x24>

080488e0 <freopen@plt>:
 80488e0:	ff 25 78 c0 04 08    	jmp    DWORD PTR ds:0x804c078
 80488e6:	68 d8 00 00 00       	push   0xd8
 80488eb:	e9 30 fe ff ff       	jmp    8048720 <_init+0x24>

080488f0 <shutdown@plt>:
 80488f0:	ff 25 7c c0 04 08    	jmp    DWORD PTR ds:0x804c07c
 80488f6:	68 e0 00 00 00       	push   0xe0
 80488fb:	e9 20 fe ff ff       	jmp    8048720 <_init+0x24>

08048900 <connect@plt>:
 8048900:	ff 25 80 c0 04 08    	jmp    DWORD PTR ds:0x804c080
 8048906:	68 e8 00 00 00       	push   0xe8
 804890b:	e9 10 fe ff ff       	jmp    8048720 <_init+0x24>

08048910 <recv@plt>:
 8048910:	ff 25 84 c0 04 08    	jmp    DWORD PTR ds:0x804c084
 8048916:	68 f0 00 00 00       	push   0xf0
 804891b:	e9 00 fe ff ff       	jmp    8048720 <_init+0x24>

08048920 <strncat@plt>:
 8048920:	ff 25 88 c0 04 08    	jmp    DWORD PTR ds:0x804c088
 8048926:	68 f8 00 00 00       	push   0xf8
 804892b:	e9 f0 fd ff ff       	jmp    8048720 <_init+0x24>

Disassembly of section .plt.got:

08048930 <.plt.got>:
 8048930:	ff 25 fc bf 04 08    	jmp    DWORD PTR ds:0x804bffc
 8048936:	66 90                	xchg   ax,ax

Disassembly of section .text:

08048940 <_start>:
 8048940:	31 ed                	xor    ebp,ebp
 8048942:	5e                   	pop    esi
 8048943:	89 e1                	mov    ecx,esp
 8048945:	83 e4 f0             	and    esp,0xfffffff0
 8048948:	50                   	push   eax
 8048949:	54                   	push   esp
 804894a:	52                   	push   edx
 804894b:	68 a0 9a 04 08       	push   0x8049aa0
 8048950:	68 40 9a 04 08       	push   0x8049a40
 8048955:	51                   	push   ecx
 8048956:	56                   	push   esi
 8048957:	68 3b 8a 04 08       	push   0x8048a3b
 804895c:	e8 ff fe ff ff       	call   8048860 <__libc_start_main@plt>
 8048961:	f4                   	hlt    
 8048962:	66 90                	xchg   ax,ax
 8048964:	66 90                	xchg   ax,ax
 8048966:	66 90                	xchg   ax,ax
 8048968:	66 90                	xchg   ax,ax
 804896a:	66 90                	xchg   ax,ax
 804896c:	66 90                	xchg   ax,ax
 804896e:	66 90                	xchg   ax,ax

08048970 <__x86.get_pc_thunk.bx>:
 8048970:	8b 1c 24             	mov    ebx,DWORD PTR [esp]
 8048973:	c3                   	ret    
 8048974:	66 90                	xchg   ax,ax
 8048976:	66 90                	xchg   ax,ax
 8048978:	66 90                	xchg   ax,ax
 804897a:	66 90                	xchg   ax,ax
 804897c:	66 90                	xchg   ax,ax
 804897e:	66 90                	xchg   ax,ax
 8048980:	b8 2f c1 04 08       	mov    eax,0x804c12f
 8048985:	2d 2c c1 04 08       	sub    eax,0x804c12c
 804898a:	83 f8 06             	cmp    eax,0x6
 804898d:	76 1a                	jbe    80489a9 <__x86.get_pc_thunk.bx+0x39>
 804898f:	b8 00 00 00 00       	mov    eax,0x0
 8048994:	85 c0                	test   eax,eax
 8048996:	74 11                	je     80489a9 <__x86.get_pc_thunk.bx+0x39>
 8048998:	55                   	push   ebp
 8048999:	89 e5                	mov    ebp,esp
 804899b:	83 ec 14             	sub    esp,0x14
 804899e:	68 2c c1 04 08       	push   0x804c12c
 80489a3:	ff d0                	call   eax
 80489a5:	83 c4 10             	add    esp,0x10
 80489a8:	c9                   	leave  
 80489a9:	f3 c3                	repz ret 
 80489ab:	90                   	nop
 80489ac:	8d 74 26 00          	lea    esi,[esi+eiz*1+0x0]
 80489b0:	b8 2c c1 04 08       	mov    eax,0x804c12c
 80489b5:	2d 2c c1 04 08       	sub    eax,0x804c12c
 80489ba:	c1 f8 02             	sar    eax,0x2
 80489bd:	89 c2                	mov    edx,eax
 80489bf:	c1 ea 1f             	shr    edx,0x1f
 80489c2:	01 d0                	add    eax,edx
 80489c4:	d1 f8                	sar    eax,1
 80489c6:	74 1b                	je     80489e3 <__x86.get_pc_thunk.bx+0x73>
 80489c8:	ba 00 00 00 00       	mov    edx,0x0
 80489cd:	85 d2                	test   edx,edx
 80489cf:	74 12                	je     80489e3 <__x86.get_pc_thunk.bx+0x73>
 80489d1:	55                   	push   ebp
 80489d2:	89 e5                	mov    ebp,esp
 80489d4:	83 ec 10             	sub    esp,0x10
 80489d7:	50                   	push   eax
 80489d8:	68 2c c1 04 08       	push   0x804c12c
 80489dd:	ff d2                	call   edx
 80489df:	83 c4 10             	add    esp,0x10
 80489e2:	c9                   	leave  
 80489e3:	f3 c3                	repz ret 
 80489e5:	8d 74 26 00          	lea    esi,[esi+eiz*1+0x0]
 80489e9:	8d bc 27 00 00 00 00 	lea    edi,[edi+eiz*1+0x0]
 80489f0:	80 3d 64 c1 04 08 00 	cmp    BYTE PTR ds:0x804c164,0x0
 80489f7:	75 13                	jne    8048a0c <__x86.get_pc_thunk.bx+0x9c>
 80489f9:	55                   	push   ebp
 80489fa:	89 e5                	mov    ebp,esp
 80489fc:	83 ec 08             	sub    esp,0x8
 80489ff:	e8 7c ff ff ff       	call   8048980 <__x86.get_pc_thunk.bx+0x10>
 8048a04:	c6 05 64 c1 04 08 01 	mov    BYTE PTR ds:0x804c164,0x1
 8048a0b:	c9                   	leave  
 8048a0c:	f3 c3                	repz ret 
 8048a0e:	66 90                	xchg   ax,ax
 8048a10:	b8 10 bf 04 08       	mov    eax,0x804bf10
 8048a15:	8b 10                	mov    edx,DWORD PTR [eax]
 8048a17:	85 d2                	test   edx,edx
 8048a19:	75 05                	jne    8048a20 <__x86.get_pc_thunk.bx+0xb0>
 8048a1b:	eb 93                	jmp    80489b0 <__x86.get_pc_thunk.bx+0x40>
 8048a1d:	8d 76 00             	lea    esi,[esi+0x0]
 8048a20:	ba 00 00 00 00       	mov    edx,0x0
 8048a25:	85 d2                	test   edx,edx
 8048a27:	74 f2                	je     8048a1b <__x86.get_pc_thunk.bx+0xab>
 8048a29:	55                   	push   ebp
 8048a2a:	89 e5                	mov    ebp,esp
 8048a2c:	83 ec 14             	sub    esp,0x14
 8048a2f:	50                   	push   eax
 8048a30:	ff d2                	call   edx
 8048a32:	83 c4 10             	add    esp,0x10
 8048a35:	c9                   	leave  
 8048a36:	e9 75 ff ff ff       	jmp    80489b0 <__x86.get_pc_thunk.bx+0x40>

08048a3b <main>:
 8048a3b:	8d 4c 24 04          	lea    ecx,[esp+0x4]
 8048a3f:	83 e4 f0             	and    esp,0xfffffff0
 8048a42:	ff 71 fc             	push   DWORD PTR [ecx-0x4]
 8048a45:	55                   	push   ebp
 8048a46:	89 e5                	mov    ebp,esp
 8048a48:	51                   	push   ecx
 8048a49:	81 ec 74 02 00 00    	sub    esp,0x274
 8048a4f:	89 c8                	mov    eax,ecx
 8048a51:	8b 40 04             	mov    eax,DWORD PTR [eax+0x4]
 8048a54:	89 85 94 fd ff ff    	mov    DWORD PTR [ebp-0x26c],eax
 8048a5a:	65 a1 14 00 00 00    	mov    eax,gs:0x14
 8048a60:	89 45 f4             	mov    DWORD PTR [ebp-0xc],eax
 8048a63:	31 c0                	xor    eax,eax
 8048a65:	83 ec 08             	sub    esp,0x8
 8048a68:	68 8a 8e 04 08       	push   0x8048e8a
 8048a6d:	6a 02                	push   0x2
 8048a6f:	e8 0c fd ff ff       	call   8048780 <signal@plt>
 8048a74:	83 c4 10             	add    esp,0x10
 8048a77:	83 ec 08             	sub    esp,0x8
 8048a7a:	68 8a 8e 04 08       	push   0x8048e8a
 8048a7f:	6a 14                	push   0x14
 8048a81:	e8 fa fc ff ff       	call   8048780 <signal@plt>
 8048a86:	83 c4 10             	add    esp,0x10
 8048a89:	83 ec 08             	sub    esp,0x8
 8048a8c:	68 8a 8e 04 08       	push   0x8048e8a
 8048a91:	6a 01                	push   0x1
 8048a93:	e8 e8 fc ff ff       	call   8048780 <signal@plt>
 8048a98:	83 c4 10             	add    esp,0x10
 8048a9b:	83 ec 08             	sub    esp,0x8
 8048a9e:	68 8a 8e 04 08       	push   0x8048e8a
 8048aa3:	6a 0f                	push   0xf
 8048aa5:	e8 d6 fc ff ff       	call   8048780 <signal@plt>
 8048aaa:	83 c4 10             	add    esp,0x10
 8048aad:	83 ec 08             	sub    esp,0x8
 8048ab0:	68 8a 8e 04 08       	push   0x8048e8a
 8048ab5:	6a 03                	push   0x3
 8048ab7:	e8 c4 fc ff ff       	call   8048780 <signal@plt>
 8048abc:	83 c4 10             	add    esp,0x10
 8048abf:	e8 30 08 00 00       	call   80492f4 <bomb_init>
 8048ac4:	83 ec 0c             	sub    esp,0xc
 8048ac7:	68 c0 9a 04 08       	push   0x8049ac0
 8048acc:	e8 1f fd ff ff       	call   80487f0 <puts@plt>
 8048ad1:	83 c4 10             	add    esp,0x10
 8048ad4:	83 ec 0c             	sub    esp,0xc
 8048ad7:	68 fc 9a 04 08       	push   0x8049afc
 8048adc:	e8 5f fc ff ff       	call   8048740 <printf@plt>
 8048ae1:	83 c4 10             	add    esp,0x10
 8048ae4:	83 ec 0c             	sub    esp,0xc
 8048ae7:	8d 85 a0 fd ff ff    	lea    eax,[ebp-0x260]
 8048aed:	50                   	push   eax
 8048aee:	e8 3e 03 00 00       	call   8048e31 <read_line>
 8048af3:	83 c4 10             	add    esp,0x10
 8048af6:	83 ec 0c             	sub    esp,0xc
 8048af9:	8d 85 a0 fd ff ff    	lea    eax,[ebp-0x260]
 8048aff:	50                   	push   eax
 8048b00:	e8 bc 03 00 00       	call   8048ec1 <phase_1>
 8048b05:	83 c4 10             	add    esp,0x10
 8048b08:	83 ec 08             	sub    esp,0x8
 8048b0b:	8d 85 a0 fd ff ff    	lea    eax,[ebp-0x260]
 8048b11:	50                   	push   eax
 8048b12:	6a 01                	push   0x1
 8048b14:	e8 6d 08 00 00       	call   8049386 <defuse_phase>
 8048b19:	83 c4 10             	add    esp,0x10
 8048b1c:	83 ec 0c             	sub    esp,0xc
 8048b1f:	68 05 9b 04 08       	push   0x8049b05
 8048b24:	e8 17 fc ff ff       	call   8048740 <printf@plt>
 8048b29:	83 c4 10             	add    esp,0x10
 8048b2c:	83 ec 0c             	sub    esp,0xc
 8048b2f:	8d 85 a0 fd ff ff    	lea    eax,[ebp-0x260]
 8048b35:	50                   	push   eax
 8048b36:	e8 f6 02 00 00       	call   8048e31 <read_line>
 8048b3b:	83 c4 10             	add    esp,0x10
 8048b3e:	83 ec 0c             	sub    esp,0xc
 8048b41:	8d 85 a0 fd ff ff    	lea    eax,[ebp-0x260]
 8048b47:	50                   	push   eax
 8048b48:	e8 c6 03 00 00       	call   8048f13 <phase_2>
 8048b4d:	83 c4 10             	add    esp,0x10
 8048b50:	83 ec 08             	sub    esp,0x8
 8048b53:	8d 85 a0 fd ff ff    	lea    eax,[ebp-0x260]
 8048b59:	50                   	push   eax
 8048b5a:	6a 02                	push   0x2
 8048b5c:	e8 25 08 00 00       	call   8049386 <defuse_phase>
 8048b61:	83 c4 10             	add    esp,0x10
 8048b64:	83 ec 0c             	sub    esp,0xc
 8048b67:	68 0e 9b 04 08       	push   0x8049b0e
 8048b6c:	e8 cf fb ff ff       	call   8048740 <printf@plt>
 8048b71:	83 c4 10             	add    esp,0x10
 8048b74:	83 ec 0c             	sub    esp,0xc
 8048b77:	8d 85 a0 fd ff ff    	lea    eax,[ebp-0x260]
 8048b7d:	50                   	push   eax
 8048b7e:	e8 ae 02 00 00       	call   8048e31 <read_line>
 8048b83:	83 c4 10             	add    esp,0x10
 8048b86:	83 ec 0c             	sub    esp,0xc
 8048b89:	8d 85 a0 fd ff ff    	lea    eax,[ebp-0x260]
 8048b8f:	50                   	push   eax
 8048b90:	e8 55 04 00 00       	call   8048fea <phase_3>
 8048b95:	83 c4 10             	add    esp,0x10
 8048b98:	83 ec 08             	sub    esp,0x8
 8048b9b:	8d 85 a0 fd ff ff    	lea    eax,[ebp-0x260]
 8048ba1:	50                   	push   eax
 8048ba2:	6a 03                	push   0x3
 8048ba4:	e8 dd 07 00 00       	call   8049386 <defuse_phase>
 8048ba9:	83 c4 10             	add    esp,0x10
 8048bac:	83 ec 0c             	sub    esp,0xc
 8048baf:	68 17 9b 04 08       	push   0x8049b17
 8048bb4:	e8 87 fb ff ff       	call   8048740 <printf@plt>
 8048bb9:	83 c4 10             	add    esp,0x10
 8048bbc:	83 ec 0c             	sub    esp,0xc
 8048bbf:	8d 85 a0 fd ff ff    	lea    eax,[ebp-0x260]
 8048bc5:	50                   	push   eax
 8048bc6:	e8 66 02 00 00       	call   8048e31 <read_line>
 8048bcb:	83 c4 10             	add    esp,0x10
 8048bce:	83 ec 0c             	sub    esp,0xc
 8048bd1:	8d 85 a0 fd ff ff    	lea    eax,[ebp-0x260]
 8048bd7:	50                   	push   eax
 8048bd8:	e8 a3 04 00 00       	call   8049080 <phase_4>
 8048bdd:	83 c4 10             	add    esp,0x10
 8048be0:	83 ec 08             	sub    esp,0x8
 8048be3:	8d 85 a0 fd ff ff    	lea    eax,[ebp-0x260]
 8048be9:	50                   	push   eax
 8048bea:	6a 04                	push   0x4
 8048bec:	e8 95 07 00 00       	call   8049386 <defuse_phase>
 8048bf1:	83 c4 10             	add    esp,0x10
 8048bf4:	83 ec 0c             	sub    esp,0xc
 8048bf7:	68 20 9b 04 08       	push   0x8049b20
 8048bfc:	e8 3f fb ff ff       	call   8048740 <printf@plt>
 8048c01:	83 c4 10             	add    esp,0x10
 8048c04:	83 ec 0c             	sub    esp,0xc
 8048c07:	8d 85 a0 fd ff ff    	lea    eax,[ebp-0x260]
 8048c0d:	50                   	push   eax
 8048c0e:	e8 1e 02 00 00       	call   8048e31 <read_line>
 8048c13:	83 c4 10             	add    esp,0x10
 8048c16:	83 ec 0c             	sub    esp,0xc
 8048c19:	8d 85 a0 fd ff ff    	lea    eax,[ebp-0x260]
 8048c1f:	50                   	push   eax
 8048c20:	e8 d8 05 00 00       	call   80491fd <phase_5>
 8048c25:	83 c4 10             	add    esp,0x10
 8048c28:	83 ec 08             	sub    esp,0x8
 8048c2b:	8d 85 a0 fd ff ff    	lea    eax,[ebp-0x260]
 8048c31:	50                   	push   eax
 8048c32:	6a 05                	push   0x5
 8048c34:	e8 4d 07 00 00       	call   8049386 <defuse_phase>
 8048c39:	83 c4 10             	add    esp,0x10
 8048c3c:	83 ec 0c             	sub    esp,0xc
 8048c3f:	68 29 9b 04 08       	push   0x8049b29
 8048c44:	e8 a7 fb ff ff       	call   80487f0 <puts@plt>
 8048c49:	83 c4 10             	add    esp,0x10
 8048c4c:	83 ec 0c             	sub    esp,0xc
 8048c4f:	68 44 9b 04 08       	push   0x8049b44
 8048c54:	e8 97 fb ff ff       	call   80487f0 <puts@plt>
 8048c59:	83 c4 10             	add    esp,0x10
 8048c5c:	83 ec 0c             	sub    esp,0xc
 8048c5f:	8d 85 a0 fd ff ff    	lea    eax,[ebp-0x260]
 8048c65:	50                   	push   eax
 8048c66:	e8 c6 01 00 00       	call   8048e31 <read_line>
 8048c6b:	83 c4 10             	add    esp,0x10
 8048c6e:	83 ec 08             	sub    esp,0x8
 8048c71:	68 5c 9b 04 08       	push   0x8049b5c
 8048c76:	8d 85 a0 fd ff ff    	lea    eax,[ebp-0x260]
 8048c7c:	50                   	push   eax
 8048c7d:	e8 ae fa ff ff       	call   8048730 <strcmp@plt>
 8048c82:	83 c4 10             	add    esp,0x10
 8048c85:	85 c0                	test   eax,eax
 8048c87:	0f 85 1a 01 00 00    	jne    8048da7 <main+0x36c>
 8048c8d:	e8 54 07 00 00       	call   80493e6 <request_num>
 8048c92:	89 85 98 fd ff ff    	mov    DWORD PTR [ebp-0x268],eax
 8048c98:	83 ec 0c             	sub    esp,0xc
 8048c9b:	68 86 9b 04 08       	push   0x8049b86
 8048ca0:	e8 9b fa ff ff       	call   8048740 <printf@plt>
 8048ca5:	83 c4 10             	add    esp,0x10
 8048ca8:	83 ec 0c             	sub    esp,0xc
 8048cab:	8d 85 a0 fd ff ff    	lea    eax,[ebp-0x260]
 8048cb1:	50                   	push   eax
 8048cb2:	e8 7a 01 00 00       	call   8048e31 <read_line>
 8048cb7:	83 c4 10             	add    esp,0x10
 8048cba:	83 ec 0c             	sub    esp,0xc
 8048cbd:	8d 85 a0 fd ff ff    	lea    eax,[ebp-0x260]
 8048cc3:	50                   	push   eax
 8048cc4:	e8 f7 fb ff ff       	call   80488c0 <atoi@plt>
 8048cc9:	83 c4 10             	add    esp,0x10
 8048ccc:	83 ec 0c             	sub    esp,0xc
 8048ccf:	50                   	push   eax
 8048cd0:	ff b5 98 fd ff ff    	push   DWORD PTR [ebp-0x268]
 8048cd6:	68 8f 9b 04 08       	push   0x8049b8f
 8048cdb:	68 00 01 00 00       	push   0x100
 8048ce0:	8d 85 f4 fd ff ff    	lea    eax,[ebp-0x20c]
 8048ce6:	50                   	push   eax
 8048ce7:	e8 a4 fb ff ff       	call   8048890 <snprintf@plt>
 8048cec:	83 c4 20             	add    esp,0x20
 8048cef:	83 ec 08             	sub    esp,0x8
 8048cf2:	68 9d 9b 04 08       	push   0x8049b9d
 8048cf7:	8d 85 f4 fd ff ff    	lea    eax,[ebp-0x20c]
 8048cfd:	50                   	push   eax
 8048cfe:	e8 9d fa ff ff       	call   80487a0 <popen@plt>
 8048d03:	83 c4 10             	add    esp,0x10
 8048d06:	89 85 9c fd ff ff    	mov    DWORD PTR [ebp-0x264],eax
 8048d0c:	83 ec 04             	sub    esp,0x4
 8048d0f:	ff b5 9c fd ff ff    	push   DWORD PTR [ebp-0x264]
 8048d15:	68 00 01 00 00       	push   0x100
 8048d1a:	8d 85 f4 fe ff ff    	lea    eax,[ebp-0x10c]
 8048d20:	50                   	push   eax
 8048d21:	e8 3a fa ff ff       	call   8048760 <fgets@plt>
 8048d26:	83 c4 10             	add    esp,0x10
 8048d29:	83 ec 0c             	sub    esp,0xc
 8048d2c:	ff b5 9c fd ff ff    	push   DWORD PTR [ebp-0x264]
 8048d32:	e8 d9 fa ff ff       	call   8048810 <pclose@plt>
 8048d37:	83 c4 10             	add    esp,0x10
 8048d3a:	83 ec 08             	sub    esp,0x8
 8048d3d:	68 9f 9b 04 08       	push   0x8049b9f
 8048d42:	8d 85 f4 fe ff ff    	lea    eax,[ebp-0x10c]
 8048d48:	50                   	push   eax
 8048d49:	e8 e2 f9 ff ff       	call   8048730 <strcmp@plt>
 8048d4e:	83 c4 10             	add    esp,0x10
 8048d51:	85 c0                	test   eax,eax
 8048d53:	75 0a                	jne    8048d5f <main+0x324>
 8048d55:	e8 eb 05 00 00       	call   8049345 <explode_bomb>
 8048d5a:	e9 b4 00 00 00       	jmp    8048e13 <main+0x3d8>
 8048d5f:	83 ec 0c             	sub    esp,0xc
 8048d62:	8d 85 a0 fd ff ff    	lea    eax,[ebp-0x260]
 8048d68:	50                   	push   eax
 8048d69:	e8 52 fb ff ff       	call   80488c0 <atoi@plt>
 8048d6e:	83 c4 10             	add    esp,0x10
 8048d71:	83 ec 0c             	sub    esp,0xc
 8048d74:	ff b5 98 fd ff ff    	push   DWORD PTR [ebp-0x268]
 8048d7a:	50                   	push   eax
 8048d7b:	68 a7 9b 04 08       	push   0x8049ba7
 8048d80:	6a 2a                	push   0x2a
 8048d82:	8d 85 ca fd ff ff    	lea    eax,[ebp-0x236]
 8048d88:	50                   	push   eax
 8048d89:	e8 02 fb ff ff       	call   8048890 <snprintf@plt>
 8048d8e:	83 c4 20             	add    esp,0x20
 8048d91:	83 ec 08             	sub    esp,0x8
 8048d94:	8d 85 ca fd ff ff    	lea    eax,[ebp-0x236]
 8048d9a:	50                   	push   eax
 8048d9b:	6a 06                	push   0x6
 8048d9d:	e8 e4 05 00 00       	call   8049386 <defuse_phase>
 8048da2:	83 c4 10             	add    esp,0x10
 8048da5:	eb 6c                	jmp    8048e13 <main+0x3d8>
 8048da7:	83 ec 0c             	sub    esp,0xc
 8048daa:	6a 00                	push   0x0
 8048dac:	e8 bf f9 ff ff       	call   8048770 <time@plt>
 8048db1:	83 c4 10             	add    esp,0x10
 8048db4:	83 ec 0c             	sub    esp,0xc
 8048db7:	50                   	push   eax
 8048db8:	e8 83 fa ff ff       	call   8048840 <srand@plt>
 8048dbd:	83 c4 10             	add    esp,0x10
 8048dc0:	e8 db fa ff ff       	call   80488a0 <rand@plt>
 8048dc5:	89 c1                	mov    ecx,eax
 8048dc7:	ba 56 55 55 55       	mov    edx,0x55555556
 8048dcc:	89 c8                	mov    eax,ecx
 8048dce:	f7 ea                	imul   edx
 8048dd0:	89 c8                	mov    eax,ecx
 8048dd2:	c1 f8 1f             	sar    eax,0x1f
 8048dd5:	29 c2                	sub    edx,eax
 8048dd7:	89 d0                	mov    eax,edx
 8048dd9:	01 c0                	add    eax,eax
 8048ddb:	01 d0                	add    eax,edx
 8048ddd:	29 c1                	sub    ecx,eax
 8048ddf:	89 ca                	mov    edx,ecx
 8048de1:	83 fa 01             	cmp    edx,0x1
 8048de4:	75 2d                	jne    8048e13 <main+0x3d8>
 8048de6:	83 ec 0c             	sub    esp,0xc
 8048de9:	68 ad 9b 04 08       	push   0x8049bad
 8048dee:	e8 fd f9 ff ff       	call   80487f0 <puts@plt>
 8048df3:	83 c4 10             	add    esp,0x10
 8048df6:	83 ec 0c             	sub    esp,0xc
 8048df9:	6a 02                	push   0x2
 8048dfb:	e8 90 f9 ff ff       	call   8048790 <sleep@plt>
 8048e00:	83 c4 10             	add    esp,0x10
 8048e03:	83 ec 0c             	sub    esp,0xc
 8048e06:	68 b3 9b 04 08       	push   0x8049bb3
 8048e0b:	e8 e0 f9 ff ff       	call   80487f0 <puts@plt>
 8048e10:	83 c4 10             	add    esp,0x10
 8048e13:	b8 00 00 00 00       	mov    eax,0x0
 8048e18:	8b 4d f4             	mov    ecx,DWORD PTR [ebp-0xc]
 8048e1b:	65 33 0d 14 00 00 00 	xor    ecx,DWORD PTR gs:0x14
 8048e22:	74 05                	je     8048e29 <main+0x3ee>
 8048e24:	e8 87 f9 ff ff       	call   80487b0 <__stack_chk_fail@plt>
 8048e29:	8b 4d fc             	mov    ecx,DWORD PTR [ebp-0x4]
 8048e2c:	c9                   	leave  
 8048e2d:	8d 61 fc             	lea    esp,[ecx-0x4]
 8048e30:	c3                   	ret    

08048e31 <read_line>:
 8048e31:	55                   	push   ebp
 8048e32:	89 e5                	mov    ebp,esp
 8048e34:	83 ec 18             	sub    esp,0x18
 8048e37:	a1 60 c1 04 08       	mov    eax,ds:0x804c160
 8048e3c:	83 ec 04             	sub    esp,0x4
 8048e3f:	50                   	push   eax
 8048e40:	6a 2a                	push   0x2a
 8048e42:	ff 75 08             	push   DWORD PTR [ebp+0x8]
 8048e45:	e8 16 f9 ff ff       	call   8048760 <fgets@plt>
 8048e4a:	83 c4 10             	add    esp,0x10
 8048e4d:	89 45 f4             	mov    DWORD PTR [ebp-0xc],eax
 8048e50:	83 7d f4 00          	cmp    DWORD PTR [ebp-0xc],0x0
 8048e54:	75 31                	jne    8048e87 <read_line+0x56>
 8048e56:	a1 60 c1 04 08       	mov    eax,ds:0x804c160
 8048e5b:	83 ec 04             	sub    esp,0x4
 8048e5e:	50                   	push   eax
 8048e5f:	68 c5 9b 04 08       	push   0x8049bc5
 8048e64:	68 c8 9b 04 08       	push   0x8049bc8
 8048e69:	e8 72 fa ff ff       	call   80488e0 <freopen@plt>
 8048e6e:	83 c4 10             	add    esp,0x10
 8048e71:	a1 60 c1 04 08       	mov    eax,ds:0x804c160
 8048e76:	83 ec 04             	sub    esp,0x4
 8048e79:	50                   	push   eax
 8048e7a:	6a 2a                	push   0x2a
 8048e7c:	ff 75 08             	push   DWORD PTR [ebp+0x8]
 8048e7f:	e8 dc f8 ff ff       	call   8048760 <fgets@plt>
 8048e84:	83 c4 10             	add    esp,0x10
 8048e87:	90                   	nop
 8048e88:	c9                   	leave  
 8048e89:	c3                   	ret    
 8048e8a:	55                   	push   ebp
 8048e8b:	89 e5                	mov    ebp,esp
 8048e8d:	83 ec 08             	sub    esp,0x8
 8048e90:	a1 40 c1 04 08       	mov    eax,ds:0x804c140
 8048e95:	50                   	push   eax
 8048e96:	6a 05                	push   0x5
 8048e98:	6a 01                	push   0x1
 8048e9a:	68 d1 9b 04 08       	push   0x8049bd1
 8048e9f:	e8 2c f9 ff ff       	call   80487d0 <fwrite@plt>
 8048ea4:	83 c4 10             	add    esp,0x10
 8048ea7:	83 7d 08 01          	cmp    DWORD PTR [ebp+0x8],0x1
 8048eab:	74 0c                	je     8048eb9 <read_line+0x88>
 8048ead:	83 7d 08 0f          	cmp    DWORD PTR [ebp+0x8],0xf
 8048eb1:	74 06                	je     8048eb9 <read_line+0x88>
 8048eb3:	83 7d 08 03          	cmp    DWORD PTR [ebp+0x8],0x3
 8048eb7:	75 05                	jne    8048ebe <read_line+0x8d>
 8048eb9:	e8 87 04 00 00       	call   8049345 <explode_bomb>
 8048ebe:	90                   	nop
 8048ebf:	c9                   	leave  
 8048ec0:	c3                   	ret    

08048ec1 <phase_1>:
 8048ec1:	55                   	push   ebp
 8048ec2:	89 e5                	mov    ebp,esp
 8048ec4:	83 ec 18             	sub    esp,0x18
 8048ec7:	83 ec 0c             	sub    esp,0xc
 8048eca:	ff 75 08             	push   DWORD PTR [ebp+0x8]
 8048ecd:	e8 7e f9 ff ff       	call   8048850 <strlen@plt>
 8048ed2:	83 c4 10             	add    esp,0x10
 8048ed5:	89 45 f0             	mov    DWORD PTR [ebp-0x10],eax
 8048ed8:	c7 45 f4 03 00 00 00 	mov    DWORD PTR [ebp-0xc],0x3
 8048edf:	8b 45 f0             	mov    eax,DWORD PTR [ebp-0x10]
 8048ee2:	8d 50 ff             	lea    edx,[eax-0x1]
 8048ee5:	8b 45 08             	mov    eax,DWORD PTR [ebp+0x8]
 8048ee8:	01 d0                	add    eax,edx
 8048eea:	0f b6 00             	movzx  eax,BYTE PTR [eax]
 8048eed:	3c 0a                	cmp    al,0xa
 8048eef:	75 12                	jne    8048f03 <phase_1+0x42>
 8048ef1:	8b 45 f0             	mov    eax,DWORD PTR [ebp-0x10]
 8048ef4:	8d 50 ff             	lea    edx,[eax-0x1]
 8048ef7:	8b 45 08             	mov    eax,DWORD PTR [ebp+0x8]
 8048efa:	01 d0                	add    eax,edx
 8048efc:	c6 00 00             	mov    BYTE PTR [eax],0x0
 8048eff:	83 6d f0 01          	sub    DWORD PTR [ebp-0x10],0x1
 8048f03:	8b 45 f0             	mov    eax,DWORD PTR [ebp-0x10]
 8048f06:	3b 45 f4             	cmp    eax,DWORD PTR [ebp-0xc]
 8048f09:	74 05                	je     8048f10 <phase_1+0x4f>
 8048f0b:	e8 35 04 00 00       	call   8049345 <explode_bomb>
 8048f10:	90                   	nop
 8048f11:	c9                   	leave  
 8048f12:	c3                   	ret    

08048f13 <phase_2>:
 8048f13:	55                   	push   ebp
 8048f14:	89 e5                	mov    ebp,esp
 8048f16:	83 ec 38             	sub    esp,0x38
 8048f19:	8b 45 08             	mov    eax,DWORD PTR [ebp+0x8]
 8048f1c:	89 45 d4             	mov    DWORD PTR [ebp-0x2c],eax
 8048f1f:	65 a1 14 00 00 00    	mov    eax,gs:0x14
 8048f25:	89 45 f4             	mov    DWORD PTR [ebp-0xc],eax
 8048f28:	31 c0                	xor    eax,eax
 8048f2a:	c7 45 ec 03 00 00 00 	mov    DWORD PTR [ebp-0x14],0x3
 8048f31:	8d 45 e8             	lea    eax,[ebp-0x18]
 8048f34:	50                   	push   eax
 8048f35:	8d 45 e4             	lea    eax,[ebp-0x1c]
 8048f38:	50                   	push   eax
 8048f39:	68 d7 9b 04 08       	push   0x8049bd7
 8048f3e:	ff 75 d4             	push   DWORD PTR [ebp-0x2c]
 8048f41:	e8 6a f9 ff ff       	call   80488b0 <sscanf@plt>
 8048f46:	83 c4 10             	add    esp,0x10
 8048f49:	89 45 f0             	mov    DWORD PTR [ebp-0x10],eax
 8048f4c:	83 7d f0 02          	cmp    DWORD PTR [ebp-0x10],0x2
 8048f50:	74 05                	je     8048f57 <phase_2+0x44>
 8048f52:	e8 ee 03 00 00       	call   8049345 <explode_bomb>
 8048f57:	8b 45 e4             	mov    eax,DWORD PTR [ebp-0x1c]
 8048f5a:	83 f8 01             	cmp    eax,0x1
 8048f5d:	7f 05                	jg     8048f64 <phase_2+0x51>
 8048f5f:	e8 e1 03 00 00       	call   8049345 <explode_bomb>
 8048f64:	8b 55 e8             	mov    edx,DWORD PTR [ebp-0x18]
 8048f67:	8b 45 e4             	mov    eax,DWORD PTR [ebp-0x1c]
 8048f6a:	83 ec 04             	sub    esp,0x4
 8048f6d:	52                   	push   edx
 8048f6e:	50                   	push   eax
 8048f6f:	ff 75 ec             	push   DWORD PTR [ebp-0x14]
 8048f72:	e8 17 00 00 00       	call   8048f8e <function2>
 8048f77:	83 c4 10             	add    esp,0x10
 8048f7a:	90                   	nop
 8048f7b:	8b 45 f4             	mov    eax,DWORD PTR [ebp-0xc]
 8048f7e:	65 33 05 14 00 00 00 	xor    eax,DWORD PTR gs:0x14
 8048f85:	74 05                	je     8048f8c <phase_2+0x79>
 8048f87:	e8 24 f8 ff ff       	call   80487b0 <__stack_chk_fail@plt>
 8048f8c:	c9                   	leave  
 8048f8d:	c3                   	ret    

08048f8e <function2>:
 8048f8e:	55                   	push   ebp
 8048f8f:	89 e5                	mov    ebp,esp
 8048f91:	83 ec 18             	sub    esp,0x18
 8048f94:	83 ec 08             	sub    esp,0x8
 8048f97:	ff 75 0c             	push   DWORD PTR [ebp+0xc]
 8048f9a:	ff 75 08             	push   DWORD PTR [ebp+0x8]
 8048f9d:	e8 1a 00 00 00       	call   8048fbc <function3>
 8048fa2:	83 c4 10             	add    esp,0x10
 8048fa5:	89 45 f4             	mov    DWORD PTR [ebp-0xc],eax
 8048fa8:	8b 55 f4             	mov    edx,DWORD PTR [ebp-0xc]
 8048fab:	8b 45 10             	mov    eax,DWORD PTR [ebp+0x10]
 8048fae:	01 d0                	add    eax,edx
 8048fb0:	85 c0                	test   eax,eax
 8048fb2:	74 05                	je     8048fb9 <function2+0x2b>
 8048fb4:	e8 8c 03 00 00       	call   8049345 <explode_bomb>
 8048fb9:	90                   	nop
 8048fba:	c9                   	leave  
 8048fbb:	c3                   	ret    

08048fbc <function3>:
 8048fbc:	55                   	push   ebp
 8048fbd:	89 e5                	mov    ebp,esp
 8048fbf:	83 ec 08             	sub    esp,0x8
 8048fc2:	83 7d 0c 00          	cmp    DWORD PTR [ebp+0xc],0x0
 8048fc6:	74 1b                	je     8048fe3 <function3+0x27>
 8048fc8:	8b 45 0c             	mov    eax,DWORD PTR [ebp+0xc]
 8048fcb:	83 e8 01             	sub    eax,0x1
 8048fce:	83 ec 08             	sub    esp,0x8
 8048fd1:	50                   	push   eax
 8048fd2:	ff 75 08             	push   DWORD PTR [ebp+0x8]
 8048fd5:	e8 e2 ff ff ff       	call   8048fbc <function3>
 8048fda:	83 c4 10             	add    esp,0x10
 8048fdd:	0f af 45 08          	imul   eax,DWORD PTR [ebp+0x8]
 8048fe1:	eb 05                	jmp    8048fe8 <function3+0x2c>
 8048fe3:	b8 01 00 00 00       	mov    eax,0x1
 8048fe8:	c9                   	leave  
 8048fe9:	c3                   	ret    

08048fea <phase_3>:
 8048fea:	55                   	push   ebp
 8048feb:	89 e5                	mov    ebp,esp
 8048fed:	83 ec 18             	sub    esp,0x18
 8048ff0:	83 ec 0c             	sub    esp,0xc
 8048ff3:	ff 75 08             	push   DWORD PTR [ebp+0x8]
 8048ff6:	e8 c5 f8 ff ff       	call   80488c0 <atoi@plt>
 8048ffb:	83 c4 10             	add    esp,0x10
 8048ffe:	89 45 f0             	mov    DWORD PTR [ebp-0x10],eax
 8049001:	83 7d f0 00          	cmp    DWORD PTR [ebp-0x10],0x0
 8049005:	7e 06                	jle    804900d <phase_3+0x23>
 8049007:	83 7d f0 28          	cmp    DWORD PTR [ebp-0x10],0x28
 804900b:	7e 05                	jle    8049012 <phase_3+0x28>
 804900d:	e8 33 03 00 00       	call   8049345 <explode_bomb>
 8049012:	83 ec 0c             	sub    esp,0xc
 8049015:	ff 75 f0             	push   DWORD PTR [ebp-0x10]
 8049018:	e8 14 00 00 00       	call   8049031 <function4>
 804901d:	83 c4 10             	add    esp,0x10
 8049020:	89 45 f4             	mov    DWORD PTR [ebp-0xc],eax
 8049023:	83 7d f4 59          	cmp    DWORD PTR [ebp-0xc],0x59
 8049027:	74 05                	je     804902e <phase_3+0x44>
 8049029:	e8 17 03 00 00       	call   8049345 <explode_bomb>
 804902e:	90                   	nop
 804902f:	c9                   	leave  
 8049030:	c3                   	ret    

08049031 <function4>:
 8049031:	55                   	push   ebp
 8049032:	89 e5                	mov    ebp,esp
 8049034:	53                   	push   ebx
 8049035:	83 ec 04             	sub    esp,0x4
 8049038:	83 7d 08 02          	cmp    DWORD PTR [ebp+0x8],0x2
 804903c:	7f 07                	jg     8049045 <function4+0x14>
 804903e:	b8 01 00 00 00       	mov    eax,0x1
 8049043:	eb 28                	jmp    804906d <function4+0x3c>
 8049045:	8b 45 08             	mov    eax,DWORD PTR [ebp+0x8]
 8049048:	83 e8 01             	sub    eax,0x1
 804904b:	83 ec 0c             	sub    esp,0xc
 804904e:	50                   	push   eax
 804904f:	e8 dd ff ff ff       	call   8049031 <function4>
 8049054:	83 c4 10             	add    esp,0x10
 8049057:	89 c3                	mov    ebx,eax
 8049059:	8b 45 08             	mov    eax,DWORD PTR [ebp+0x8]
 804905c:	83 e8 02             	sub    eax,0x2
 804905f:	83 ec 0c             	sub    esp,0xc
 8049062:	50                   	push   eax
 8049063:	e8 c9 ff ff ff       	call   8049031 <function4>
 8049068:	83 c4 10             	add    esp,0x10
 804906b:	01 d8                	add    eax,ebx
 804906d:	8b 5d fc             	mov    ebx,DWORD PTR [ebp-0x4]
 8049070:	c9                   	leave  
 8049071:	c3                   	ret    
 8049072:	66 90                	xchg   ax,ax
 8049074:	66 90                	xchg   ax,ax
 8049076:	66 90                	xchg   ax,ax
 8049078:	66 90                	xchg   ax,ax
 804907a:	66 90                	xchg   ax,ax
 804907c:	66 90                	xchg   ax,ax
 804907e:	66 90                	xchg   ax,ax

08049080 <phase_4>:
 8049080:	55                   	push   ebp
 8049081:	89 e5                	mov    ebp,esp
 8049083:	83 ec 08             	sub    esp,0x8
 8049086:	8b 5d 08             	mov    ebx,DWORD PTR [ebp+0x8]
 8049089:	53                   	push   ebx
 804908a:	e8 c1 f7 ff ff       	call   8048850 <strlen@plt>
 804908f:	5b                   	pop    ebx
 8049090:	48                   	dec    eax
 8049091:	83 f8 08             	cmp    eax,0x8
 8049094:	74 05                	je     804909b <phase_4+0x1b>
 8049096:	e8 aa 02 00 00       	call   8049345 <explode_bomb>
 804909b:	68 b1 c0 04 08       	push   0x804c0b1
 80490a0:	e8 18 00 00 00       	call   80490bd <phase_4+0x3d>
 80490a5:	5b                   	pop    ebx
 80490a6:	89 45 fc             	mov    DWORD PTR [ebp-0x4],eax
 80490a9:	8b 55 08             	mov    edx,DWORD PTR [ebp+0x8]
 80490ac:	52                   	push   edx
 80490ad:	8b 55 fc             	mov    edx,DWORD PTR [ebp-0x4]
 80490b0:	52                   	push   edx
 80490b1:	e8 44 00 00 00       	call   80490fa <phase_4+0x7a>
 80490b6:	83 c4 10             	add    esp,0x10
 80490b9:	89 ec                	mov    esp,ebp
 80490bb:	5d                   	pop    ebp
 80490bc:	c3                   	ret    
 80490bd:	55                   	push   ebp
 80490be:	89 e5                	mov    ebp,esp
 80490c0:	83 ec 04             	sub    esp,0x4
 80490c3:	c6 45 fc 00          	mov    BYTE PTR [ebp-0x4],0x0
 80490c7:	31 c9                	xor    ecx,ecx
 80490c9:	8b 7d 08             	mov    edi,DWORD PTR [ebp+0x8]
 80490cc:	83 f9 08             	cmp    ecx,0x8
 80490cf:	7d 23                	jge    80490f4 <phase_4+0x74>
 80490d1:	8a 1c 0f             	mov    bl,BYTE PTR [edi+ecx*1]
 80490d4:	88 5d fc             	mov    BYTE PTR [ebp-0x4],bl
 80490d7:	89 c8                	mov    eax,ecx
 80490d9:	83 c0 02             	add    eax,0x2
 80490dc:	31 d2                	xor    edx,edx
 80490de:	bb 08 00 00 00       	mov    ebx,0x8
 80490e3:	f7 fb                	idiv   ebx
 80490e5:	8a 1c 17             	mov    bl,BYTE PTR [edi+edx*1]
 80490e8:	88 1c 0f             	mov    BYTE PTR [edi+ecx*1],bl
 80490eb:	8a 5d fc             	mov    bl,BYTE PTR [ebp-0x4]
 80490ee:	88 1c 17             	mov    BYTE PTR [edi+edx*1],bl
 80490f1:	41                   	inc    ecx
 80490f2:	eb d8                	jmp    80490cc <phase_4+0x4c>
 80490f4:	89 f8                	mov    eax,edi
 80490f6:	89 ec                	mov    esp,ebp
 80490f8:	5d                   	pop    ebp
 80490f9:	c3                   	ret    
 80490fa:	55                   	push   ebp
 80490fb:	89 e5                	mov    ebp,esp
 80490fd:	83 ec 04             	sub    esp,0x4
 8049100:	8b 7d 08             	mov    edi,DWORD PTR [ebp+0x8]
 8049103:	8b 75 0c             	mov    esi,DWORD PTR [ebp+0xc]
 8049106:	31 c9                	xor    ecx,ecx
 8049108:	b8 ba c0 04 08       	mov    eax,0x804c0ba
 804910d:	89 45 fc             	mov    DWORD PTR [ebp-0x4],eax
 8049110:	8b 45 fc             	mov    eax,DWORD PTR [ebp-0x4]
 8049113:	83 f9 08             	cmp    ecx,0x8
 8049116:	7d 25                	jge    804913d <phase_4+0xbd>
 8049118:	53                   	push   ebx
 8049119:	0f b6 1c 0e          	movzx  ebx,BYTE PTR [esi+ecx*1]
 804911d:	83 eb 30             	sub    ebx,0x30
 8049120:	50                   	push   eax
 8049121:	51                   	push   ecx
 8049122:	89 d8                	mov    eax,ebx
 8049124:	b9 08 00 00 00       	mov    ecx,0x8
 8049129:	31 d2                	xor    edx,edx
 804912b:	f7 f9                	idiv   ecx
 804912d:	89 d3                	mov    ebx,edx
 804912f:	59                   	pop    ecx
 8049130:	58                   	pop    eax
 8049131:	0f b6 14 1f          	movzx  edx,BYTE PTR [edi+ebx*1]
 8049135:	66 89 14 08          	mov    WORD PTR [eax+ecx*1],dx
 8049139:	5b                   	pop    ebx
 804913a:	41                   	inc    ecx
 804913b:	eb d6                	jmp    8049113 <phase_4+0x93>
 804913d:	8b 45 fc             	mov    eax,DWORD PTR [ebp-0x4]
 8049140:	50                   	push   eax
 8049141:	68 a8 c0 04 08       	push   0x804c0a8
 8049146:	e8 08 00 00 00       	call   8049153 <phase_4+0xd3>
 804914b:	5b                   	pop    ebx
 804914c:	83 c4 08             	add    esp,0x8
 804914f:	89 ec                	mov    esp,ebp
 8049151:	5d                   	pop    ebp
 8049152:	c3                   	ret    
 8049153:	55                   	push   ebp
 8049154:	89 e5                	mov    ebp,esp
 8049156:	83 ec 08             	sub    esp,0x8
 8049159:	8b 7d 08             	mov    edi,DWORD PTR [ebp+0x8]
 804915c:	8b 75 0c             	mov    esi,DWORD PTR [ebp+0xc]
 804915f:	31 c9                	xor    ecx,ecx
 8049161:	0f b6 07             	movzx  eax,BYTE PTR [edi]
 8049164:	31 d2                	xor    edx,edx
 8049166:	0f b6 1e             	movzx  ebx,BYTE PTR [esi]
 8049169:	f7 fb                	idiv   ebx
 804916b:	83 fa 00             	cmp    edx,0x0
 804916e:	0f 85 80 00 00 00    	jne    80491f4 <phase_4+0x174>
 8049174:	41                   	inc    ecx
 8049175:	0f b6 04 0f          	movzx  eax,BYTE PTR [edi+ecx*1]
 8049179:	31 d2                	xor    edx,edx
 804917b:	0f b6 1c 0e          	movzx  ebx,BYTE PTR [esi+ecx*1]
 804917f:	f7 fb                	idiv   ebx
 8049181:	83 fa 00             	cmp    edx,0x0
 8049184:	75 6e                	jne    80491f4 <phase_4+0x174>
 8049186:	41                   	inc    ecx
 8049187:	0f b6 04 0f          	movzx  eax,BYTE PTR [edi+ecx*1]
 804918b:	31 d2                	xor    edx,edx
 804918d:	0f b6 1c 0e          	movzx  ebx,BYTE PTR [esi+ecx*1]
 8049191:	f7 fb                	idiv   ebx
 8049193:	83 fa 00             	cmp    edx,0x0
 8049196:	75 5c                	jne    80491f4 <phase_4+0x174>
 8049198:	41                   	inc    ecx
 8049199:	0f b6 04 0f          	movzx  eax,BYTE PTR [edi+ecx*1]
 804919d:	31 d2                	xor    edx,edx
 804919f:	0f b6 1c 0e          	movzx  ebx,BYTE PTR [esi+ecx*1]
 80491a3:	f7 fb                	idiv   ebx
 80491a5:	83 fa 00             	cmp    edx,0x0
 80491a8:	75 4a                	jne    80491f4 <phase_4+0x174>
 80491aa:	41                   	inc    ecx
 80491ab:	0f b6 04 0f          	movzx  eax,BYTE PTR [edi+ecx*1]
 80491af:	31 d2                	xor    edx,edx
 80491b1:	0f b6 1c 0e          	movzx  ebx,BYTE PTR [esi+ecx*1]
 80491b5:	f7 fb                	idiv   ebx
 80491b7:	83 fa 00             	cmp    edx,0x0
 80491ba:	75 38                	jne    80491f4 <phase_4+0x174>
 80491bc:	41                   	inc    ecx
 80491bd:	0f b6 04 0f          	movzx  eax,BYTE PTR [edi+ecx*1]
 80491c1:	31 d2                	xor    edx,edx
 80491c3:	0f b6 1c 0e          	movzx  ebx,BYTE PTR [esi+ecx*1]
 80491c7:	f7 fb                	idiv   ebx
 80491c9:	83 fa 00             	cmp    edx,0x0
 80491cc:	75 26                	jne    80491f4 <phase_4+0x174>
 80491ce:	41                   	inc    ecx
 80491cf:	0f b6 04 0f          	movzx  eax,BYTE PTR [edi+ecx*1]
 80491d3:	31 d2                	xor    edx,edx
 80491d5:	0f b6 1c 0e          	movzx  ebx,BYTE PTR [esi+ecx*1]
 80491d9:	f7 fb                	idiv   ebx
 80491db:	83 fa 00             	cmp    edx,0x0
 80491de:	75 14                	jne    80491f4 <phase_4+0x174>
 80491e0:	41                   	inc    ecx
 80491e1:	0f b6 04 0f          	movzx  eax,BYTE PTR [edi+ecx*1]
 80491e5:	31 d2                	xor    edx,edx
 80491e7:	0f b6 1c 0e          	movzx  ebx,BYTE PTR [esi+ecx*1]
 80491eb:	f7 fb                	idiv   ebx
 80491ed:	83 fa 00             	cmp    edx,0x0
 80491f0:	75 02                	jne    80491f4 <phase_4+0x174>
 80491f2:	eb 05                	jmp    80491f9 <phase_4+0x179>
 80491f4:	e8 0b 01 00 00       	call   8049304 <bomb_explode>
 80491f9:	89 ec                	mov    esp,ebp
 80491fb:	5d                   	pop    ebp
 80491fc:	c3                   	ret    

080491fd <phase_5>:
 80491fd:	55                   	push   ebp
 80491fe:	89 e5                	mov    ebp,esp
 8049200:	83 ec 38             	sub    esp,0x38
 8049203:	8b 45 08             	mov    eax,DWORD PTR [ebp+0x8]
 8049206:	89 45 d4             	mov    DWORD PTR [ebp-0x2c],eax
 8049209:	65 a1 14 00 00 00    	mov    eax,gs:0x14
 804920f:	89 45 f4             	mov    DWORD PTR [ebp-0xc],eax
 8049212:	31 c0                	xor    eax,eax
 8049214:	83 ec 0c             	sub    esp,0xc
 8049217:	8d 45 dc             	lea    eax,[ebp-0x24]
 804921a:	50                   	push   eax
 804921b:	e8 50 f5 ff ff       	call   8048770 <time@plt>
 8049220:	83 c4 10             	add    esp,0x10
 8049223:	83 ec 0c             	sub    esp,0xc
 8049226:	8d 45 dc             	lea    eax,[ebp-0x24]
 8049229:	50                   	push   eax
 804922a:	e8 01 f6 ff ff       	call   8048830 <localtime@plt>
 804922f:	83 c4 10             	add    esp,0x10
 8049232:	89 45 e0             	mov    DWORD PTR [ebp-0x20],eax
 8049235:	83 ec 0c             	sub    esp,0xc
 8049238:	8d 45 dc             	lea    eax,[ebp-0x24]
 804923b:	50                   	push   eax
 804923c:	e8 ef f5 ff ff       	call   8048830 <localtime@plt>
 8049241:	83 c4 10             	add    esp,0x10
 8049244:	89 45 e4             	mov    DWORD PTR [ebp-0x1c],eax
 8049247:	8b 45 e0             	mov    eax,DWORD PTR [ebp-0x20]
 804924a:	8b 40 08             	mov    eax,DWORD PTR [eax+0x8]
 804924d:	ba 17 00 00 00       	mov    edx,0x17
 8049252:	29 c2                	sub    edx,eax
 8049254:	8b 45 e4             	mov    eax,DWORD PTR [ebp-0x1c]
 8049257:	89 50 08             	mov    DWORD PTR [eax+0x8],edx
 804925a:	8b 45 e0             	mov    eax,DWORD PTR [ebp-0x20]
 804925d:	8b 40 04             	mov    eax,DWORD PTR [eax+0x4]
 8049260:	ba 3c 00 00 00       	mov    edx,0x3c
 8049265:	29 c2                	sub    edx,eax
 8049267:	8b 45 e4             	mov    eax,DWORD PTR [ebp-0x1c]
 804926a:	89 50 04             	mov    DWORD PTR [eax+0x4],edx
 804926d:	8b 45 e0             	mov    eax,DWORD PTR [ebp-0x20]
 8049270:	8b 00                	mov    eax,DWORD PTR [eax]
 8049272:	ba 3c 00 00 00       	mov    edx,0x3c
 8049277:	29 c2                	sub    edx,eax
 8049279:	8b 45 e4             	mov    eax,DWORD PTR [ebp-0x1c]
 804927c:	89 10                	mov    DWORD PTR [eax],edx
 804927e:	ff 75 e4             	push   DWORD PTR [ebp-0x1c]
 8049281:	68 dd 9b 04 08       	push   0x8049bdd
 8049286:	6a 06                	push   0x6
 8049288:	8d 45 ee             	lea    eax,[ebp-0x12]
 804928b:	50                   	push   eax
 804928c:	e8 8f f5 ff ff       	call   8048820 <strftime@plt>
 8049291:	83 c4 10             	add    esp,0x10
 8049294:	83 ec 0c             	sub    esp,0xc
 8049297:	ff 75 d4             	push   DWORD PTR [ebp-0x2c]
 804929a:	e8 b1 f5 ff ff       	call   8048850 <strlen@plt>
 804929f:	83 c4 10             	add    esp,0x10
 80492a2:	89 45 e8             	mov    DWORD PTR [ebp-0x18],eax
 80492a5:	8b 45 e8             	mov    eax,DWORD PTR [ebp-0x18]
 80492a8:	8d 50 ff             	lea    edx,[eax-0x1]
 80492ab:	8b 45 d4             	mov    eax,DWORD PTR [ebp-0x2c]
 80492ae:	01 d0                	add    eax,edx
 80492b0:	0f b6 00             	movzx  eax,BYTE PTR [eax]
 80492b3:	3c 0a                	cmp    al,0xa
 80492b5:	75 0e                	jne    80492c5 <phase_5+0xc8>
 80492b7:	8b 45 e8             	mov    eax,DWORD PTR [ebp-0x18]
 80492ba:	8d 50 ff             	lea    edx,[eax-0x1]
 80492bd:	8b 45 d4             	mov    eax,DWORD PTR [ebp-0x2c]
 80492c0:	01 d0                	add    eax,edx
 80492c2:	c6 00 00             	mov    BYTE PTR [eax],0x0
 80492c5:	83 ec 08             	sub    esp,0x8
 80492c8:	8d 45 ee             	lea    eax,[ebp-0x12]
 80492cb:	50                   	push   eax
 80492cc:	ff 75 d4             	push   DWORD PTR [ebp-0x2c]
 80492cf:	e8 5c f4 ff ff       	call   8048730 <strcmp@plt>
 80492d4:	83 c4 10             	add    esp,0x10
 80492d7:	85 c0                	test   eax,eax
 80492d9:	74 05                	je     80492e0 <phase_5+0xe3>
 80492db:	e8 65 00 00 00       	call   8049345 <explode_bomb>
 80492e0:	90                   	nop
 80492e1:	8b 45 f4             	mov    eax,DWORD PTR [ebp-0xc]
 80492e4:	65 33 05 14 00 00 00 	xor    eax,DWORD PTR gs:0x14
 80492eb:	74 05                	je     80492f2 <phase_5+0xf5>
 80492ed:	e8 be f4 ff ff       	call   80487b0 <__stack_chk_fail@plt>
 80492f2:	c9                   	leave  
 80492f3:	c3                   	ret    

080492f4 <bomb_init>:
 80492f4:	55                   	push   ebp
 80492f5:	89 e5                	mov    ebp,esp
 80492f7:	c7 05 68 c1 04 08 01 	mov    DWORD PTR ds:0x804c168,0x1
 80492fe:	00 00 00 
 8049301:	90                   	nop
 8049302:	5d                   	pop    ebp
 8049303:	c3                   	ret    

08049304 <bomb_explode>:
 8049304:	55                   	push   ebp
 8049305:	89 e5                	mov    ebp,esp
 8049307:	83 ec 58             	sub    esp,0x58
 804930a:	65 a1 14 00 00 00    	mov    eax,gs:0x14
 8049310:	89 45 f4             	mov    DWORD PTR [ebp-0xc],eax
 8049313:	31 c0                	xor    eax,eax
 8049315:	83 ec 04             	sub    esp,0x4
 8049318:	68 e4 9b 04 08       	push   0x8049be4
 804931d:	6a 65                	push   0x65
 804931f:	8d 45 b5             	lea    eax,[ebp-0x4b]
 8049322:	50                   	push   eax
 8049323:	e8 24 04 00 00       	call   804974c <create_protocol>
 8049328:	83 c4 10             	add    esp,0x10
 804932b:	83 ec 0c             	sub    esp,0xc
 804932e:	68 e5 9b 04 08       	push   0x8049be5
 8049333:	e8 b8 f4 ff ff       	call   80487f0 <puts@plt>
 8049338:	83 c4 10             	add    esp,0x10
 804933b:	83 ec 0c             	sub    esp,0xc
 804933e:	6a 00                	push   0x0
 8049340:	e8 bb f4 ff ff       	call   8048800 <exit@plt>

08049345 <explode_bomb>:
 8049345:	55                   	push   ebp
 8049346:	89 e5                	mov    ebp,esp
 8049348:	83 ec 58             	sub    esp,0x58
 804934b:	65 a1 14 00 00 00    	mov    eax,gs:0x14
 8049351:	89 45 f4             	mov    DWORD PTR [ebp-0xc],eax
 8049354:	31 c0                	xor    eax,eax
 8049356:	83 ec 04             	sub    esp,0x4
 8049359:	68 e4 9b 04 08       	push   0x8049be4
 804935e:	6a 65                	push   0x65
 8049360:	8d 45 b5             	lea    eax,[ebp-0x4b]
 8049363:	50                   	push   eax
 8049364:	e8 e3 03 00 00       	call   804974c <create_protocol>
 8049369:	83 c4 10             	add    esp,0x10
 804936c:	83 ec 0c             	sub    esp,0xc
 804936f:	68 e5 9b 04 08       	push   0x8049be5
 8049374:	e8 77 f4 ff ff       	call   80487f0 <puts@plt>
 8049379:	83 c4 10             	add    esp,0x10
 804937c:	83 ec 0c             	sub    esp,0xc
 804937f:	6a 00                	push   0x0
 8049381:	e8 7a f4 ff ff       	call   8048800 <exit@plt>

08049386 <defuse_phase>:
 8049386:	55                   	push   ebp
 8049387:	89 e5                	mov    ebp,esp
 8049389:	83 ec 68             	sub    esp,0x68
 804938c:	8b 45 0c             	mov    eax,DWORD PTR [ebp+0xc]
 804938f:	89 45 a4             	mov    DWORD PTR [ebp-0x5c],eax
 8049392:	65 a1 14 00 00 00    	mov    eax,gs:0x14
 8049398:	89 45 f4             	mov    DWORD PTR [ebp-0xc],eax
 804939b:	31 c0                	xor    eax,eax
 804939d:	83 ec 04             	sub    esp,0x4
 80493a0:	ff 75 a4             	push   DWORD PTR [ebp-0x5c]
 80493a3:	6a 64                	push   0x64
 80493a5:	8d 45 b5             	lea    eax,[ebp-0x4b]
 80493a8:	50                   	push   eax
 80493a9:	e8 9e 03 00 00       	call   804974c <create_protocol>
 80493ae:	83 c4 10             	add    esp,0x10
 80493b1:	a1 68 c1 04 08       	mov    eax,ds:0x804c168
 80493b6:	83 ec 08             	sub    esp,0x8
 80493b9:	50                   	push   eax
 80493ba:	68 eb 9b 04 08       	push   0x8049beb
 80493bf:	e8 7c f3 ff ff       	call   8048740 <printf@plt>
 80493c4:	83 c4 10             	add    esp,0x10
 80493c7:	8b 45 08             	mov    eax,DWORD PTR [ebp+0x8]
 80493ca:	83 c0 01             	add    eax,0x1
 80493cd:	a3 68 c1 04 08       	mov    ds:0x804c168,eax
 80493d2:	90                   	nop
 80493d3:	8b 45 f4             	mov    eax,DWORD PTR [ebp-0xc]
 80493d6:	65 33 05 14 00 00 00 	xor    eax,DWORD PTR gs:0x14
 80493dd:	74 05                	je     80493e4 <defuse_phase+0x5e>
 80493df:	e8 cc f3 ff ff       	call   80487b0 <__stack_chk_fail@plt>
 80493e4:	c9                   	leave  
 80493e5:	c3                   	ret    

080493e6 <request_num>:
 80493e6:	55                   	push   ebp
 80493e7:	89 e5                	mov    ebp,esp
 80493e9:	83 ec 58             	sub    esp,0x58
 80493ec:	65 a1 14 00 00 00    	mov    eax,gs:0x14
 80493f2:	89 45 f4             	mov    DWORD PTR [ebp-0xc],eax
 80493f5:	31 c0                	xor    eax,eax
 80493f7:	83 ec 04             	sub    esp,0x4
 80493fa:	6a 00                	push   0x0
 80493fc:	6a 72                	push   0x72
 80493fe:	8d 45 b5             	lea    eax,[ebp-0x4b]
 8049401:	50                   	push   eax
 8049402:	e8 9d 00 00 00       	call   80494a4 <create_protocol_2>
 8049407:	83 c4 10             	add    esp,0x10
 804940a:	89 45 b0             	mov    DWORD PTR [ebp-0x50],eax
 804940d:	8b 45 b0             	mov    eax,DWORD PTR [ebp-0x50]
 8049410:	8b 55 f4             	mov    edx,DWORD PTR [ebp-0xc]
 8049413:	65 33 15 14 00 00 00 	xor    edx,DWORD PTR gs:0x14
 804941a:	74 05                	je     8049421 <request_num+0x3b>
 804941c:	e8 8f f3 ff ff       	call   80487b0 <__stack_chk_fail@plt>
 8049421:	c9                   	leave  
 8049422:	c3                   	ret    

08049423 <bomb_send_2>:
 8049423:	55                   	push   ebp
 8049424:	89 e5                	mov    ebp,esp
 8049426:	83 ec 28             	sub    esp,0x28
 8049429:	8b 45 08             	mov    eax,DWORD PTR [ebp+0x8]
 804942c:	89 45 e4             	mov    DWORD PTR [ebp-0x1c],eax
 804942f:	65 a1 14 00 00 00    	mov    eax,gs:0x14
 8049435:	89 45 f4             	mov    DWORD PTR [ebp-0xc],eax
 8049438:	31 c0                	xor    eax,eax
 804943a:	83 ec 0c             	sub    esp,0xc
 804943d:	8d 45 ec             	lea    eax,[ebp-0x14]
 8049440:	50                   	push   eax
 8049441:	e8 7a 01 00 00       	call   80495c0 <bomb_connect>
 8049446:	83 c4 10             	add    esp,0x10
 8049449:	8b 55 0c             	mov    edx,DWORD PTR [ebp+0xc]
 804944c:	8b 45 ec             	mov    eax,DWORD PTR [ebp-0x14]
 804944f:	83 ec 04             	sub    esp,0x4
 8049452:	52                   	push   edx
 8049453:	ff 75 e4             	push   DWORD PTR [ebp-0x1c]
 8049456:	50                   	push   eax
 8049457:	e8 14 f4 ff ff       	call   8048870 <write@plt>
 804945c:	83 c4 10             	add    esp,0x10
 804945f:	8b 45 ec             	mov    eax,DWORD PTR [ebp-0x14]
 8049462:	6a 00                	push   0x0
 8049464:	6a 04                	push   0x4
 8049466:	8d 55 f0             	lea    edx,[ebp-0x10]
 8049469:	52                   	push   edx
 804946a:	50                   	push   eax
 804946b:	e8 a0 f4 ff ff       	call   8048910 <recv@plt>
 8049470:	83 c4 10             	add    esp,0x10
 8049473:	8b 45 ec             	mov    eax,DWORD PTR [ebp-0x14]
 8049476:	83 ec 0c             	sub    esp,0xc
 8049479:	50                   	push   eax
 804947a:	e8 b4 02 00 00       	call   8049733 <bomb_close_socket>
 804947f:	83 c4 10             	add    esp,0x10
 8049482:	83 ec 0c             	sub    esp,0xc
 8049485:	8d 45 f0             	lea    eax,[ebp-0x10]
 8049488:	50                   	push   eax
 8049489:	e8 32 f4 ff ff       	call   80488c0 <atoi@plt>
 804948e:	83 c4 10             	add    esp,0x10
 8049491:	8b 4d f4             	mov    ecx,DWORD PTR [ebp-0xc]
 8049494:	65 33 0d 14 00 00 00 	xor    ecx,DWORD PTR gs:0x14
 804949b:	74 05                	je     80494a2 <bomb_send_2+0x7f>
 804949d:	e8 0e f3 ff ff       	call   80487b0 <__stack_chk_fail@plt>
 80494a2:	c9                   	leave  
 80494a3:	c3                   	ret    

080494a4 <create_protocol_2>:
 80494a4:	55                   	push   ebp
 80494a5:	89 e5                	mov    ebp,esp
 80494a7:	57                   	push   edi
 80494a8:	83 ec 44             	sub    esp,0x44
 80494ab:	8b 45 0c             	mov    eax,DWORD PTR [ebp+0xc]
 80494ae:	8b 55 08             	mov    edx,DWORD PTR [ebp+0x8]
 80494b1:	89 55 c4             	mov    DWORD PTR [ebp-0x3c],edx
 80494b4:	88 45 c0             	mov    BYTE PTR [ebp-0x40],al
 80494b7:	8b 45 10             	mov    eax,DWORD PTR [ebp+0x10]
 80494ba:	89 45 bc             	mov    DWORD PTR [ebp-0x44],eax
 80494bd:	65 a1 14 00 00 00    	mov    eax,gs:0x14
 80494c3:	89 45 f4             	mov    DWORD PTR [ebp-0xc],eax
 80494c6:	31 c0                	xor    eax,eax
 80494c8:	8b 45 c4             	mov    eax,DWORD PTR [ebp-0x3c]
 80494cb:	0f b6 55 c0          	movzx  edx,BYTE PTR [ebp-0x40]
 80494cf:	88 10                	mov    BYTE PTR [eax],dl
 80494d1:	8b 45 c4             	mov    eax,DWORD PTR [ebp-0x3c]
 80494d4:	83 c0 01             	add    eax,0x1
 80494d7:	8b 15 68 c1 04 08    	mov    edx,DWORD PTR ds:0x804c168
 80494dd:	83 c2 30             	add    edx,0x30
 80494e0:	88 10                	mov    BYTE PTR [eax],dl
 80494e2:	8b 45 c4             	mov    eax,DWORD PTR [ebp-0x3c]
 80494e5:	83 c0 02             	add    eax,0x2
 80494e8:	c6 00 00             	mov    BYTE PTR [eax],0x0
 80494eb:	8b 45 c4             	mov    eax,DWORD PTR [ebp-0x3c]
 80494ee:	b9 ff ff ff ff       	mov    ecx,0xffffffff
 80494f3:	89 c2                	mov    edx,eax
 80494f5:	b8 00 00 00 00       	mov    eax,0x0
 80494fa:	89 d7                	mov    edi,edx
 80494fc:	f2 ae                	repnz scas al,BYTE PTR es:[edi]
 80494fe:	89 c8                	mov    eax,ecx
 8049500:	f7 d0                	not    eax
 8049502:	8d 50 ff             	lea    edx,[eax-0x1]
 8049505:	8b 45 c4             	mov    eax,DWORD PTR [ebp-0x3c]
 8049508:	01 d0                	add    eax,edx
 804950a:	c7 00 31 39 39 39    	mov    DWORD PTR [eax],0x39393931
 8049510:	c7 40 04 30 38 31 32 	mov    DWORD PTR [eax+0x4],0x32313830
 8049517:	c6 40 08 00          	mov    BYTE PTR [eax+0x8],0x0
 804951b:	83 ec 0c             	sub    esp,0xc
 804951e:	6a 00                	push   0x0
 8049520:	e8 4b f2 ff ff       	call   8048770 <time@plt>
 8049525:	83 c4 10             	add    esp,0x10
 8049528:	89 45 cc             	mov    DWORD PTR [ebp-0x34],eax
 804952b:	83 ec 0c             	sub    esp,0xc
 804952e:	8d 45 cc             	lea    eax,[ebp-0x34]
 8049531:	50                   	push   eax
 8049532:	e8 f9 f2 ff ff       	call   8048830 <localtime@plt>
 8049537:	83 c4 10             	add    esp,0x10
 804953a:	50                   	push   eax
 804953b:	68 06 9c 04 08       	push   0x8049c06
 8049540:	6a 15                	push   0x15
 8049542:	8d 45 df             	lea    eax,[ebp-0x21]
 8049545:	50                   	push   eax
 8049546:	e8 d5 f2 ff ff       	call   8048820 <strftime@plt>
 804954b:	83 c4 10             	add    esp,0x10
 804954e:	83 ec 04             	sub    esp,0x4
 8049551:	6a 0a                	push   0xa
 8049553:	8d 45 df             	lea    eax,[ebp-0x21]
 8049556:	50                   	push   eax
 8049557:	ff 75 c4             	push   DWORD PTR [ebp-0x3c]
 804955a:	e8 c1 f3 ff ff       	call   8048920 <strncat@plt>
 804955f:	83 c4 10             	add    esp,0x10
 8049562:	83 7d bc 00          	cmp    DWORD PTR [ebp-0x44],0x0
 8049566:	74 13                	je     804957b <create_protocol_2+0xd7>
 8049568:	83 ec 04             	sub    esp,0x4
 804956b:	6a 20                	push   0x20
 804956d:	ff 75 bc             	push   DWORD PTR [ebp-0x44]
 8049570:	ff 75 c4             	push   DWORD PTR [ebp-0x3c]
 8049573:	e8 a8 f3 ff ff       	call   8048920 <strncat@plt>
 8049578:	83 c4 10             	add    esp,0x10
 804957b:	83 ec 04             	sub    esp,0x4
 804957e:	8d 45 d0             	lea    eax,[ebp-0x30]
 8049581:	50                   	push   eax
 8049582:	6a 3f                	push   0x3f
 8049584:	ff 75 c4             	push   DWORD PTR [ebp-0x3c]
 8049587:	e8 d7 02 00 00       	call   8049863 <base64_encode>
 804958c:	83 c4 10             	add    esp,0x10
 804958f:	89 45 d4             	mov    DWORD PTR [ebp-0x2c],eax
 8049592:	8b 45 d0             	mov    eax,DWORD PTR [ebp-0x30]
 8049595:	83 ec 08             	sub    esp,0x8
 8049598:	50                   	push   eax
 8049599:	ff 75 d4             	push   DWORD PTR [ebp-0x2c]
 804959c:	e8 82 fe ff ff       	call   8049423 <bomb_send_2>
 80495a1:	83 c4 10             	add    esp,0x10
 80495a4:	89 45 d8             	mov    DWORD PTR [ebp-0x28],eax
 80495a7:	8b 45 d8             	mov    eax,DWORD PTR [ebp-0x28]
 80495aa:	8b 7d f4             	mov    edi,DWORD PTR [ebp-0xc]
 80495ad:	65 33 3d 14 00 00 00 	xor    edi,DWORD PTR gs:0x14
 80495b4:	74 05                	je     80495bb <create_protocol_2+0x117>
 80495b6:	e8 f5 f1 ff ff       	call   80487b0 <__stack_chk_fail@plt>
 80495bb:	8b 7d fc             	mov    edi,DWORD PTR [ebp-0x4]
 80495be:	c9                   	leave  
 80495bf:	c3                   	ret    

080495c0 <bomb_connect>:
 80495c0:	55                   	push   ebp
 80495c1:	89 e5                	mov    ebp,esp
 80495c3:	83 ec 38             	sub    esp,0x38
 80495c6:	8b 45 08             	mov    eax,DWORD PTR [ebp+0x8]
 80495c9:	89 45 d4             	mov    DWORD PTR [ebp-0x2c],eax
 80495cc:	65 a1 14 00 00 00    	mov    eax,gs:0x14
 80495d2:	89 45 f4             	mov    DWORD PTR [ebp-0xc],eax
 80495d5:	31 c0                	xor    eax,eax
 80495d7:	83 ec 04             	sub    esp,0x4
 80495da:	6a 00                	push   0x0
 80495dc:	6a 01                	push   0x1
 80495de:	6a 02                	push   0x2
 80495e0:	e8 eb f2 ff ff       	call   80488d0 <socket@plt>
 80495e5:	83 c4 10             	add    esp,0x10
 80495e8:	89 c2                	mov    edx,eax
 80495ea:	8b 45 d4             	mov    eax,DWORD PTR [ebp-0x2c]
 80495ed:	89 10                	mov    DWORD PTR [eax],edx
 80495ef:	8b 45 d4             	mov    eax,DWORD PTR [ebp-0x2c]
 80495f2:	8b 00                	mov    eax,DWORD PTR [eax]
 80495f4:	85 c0                	test   eax,eax
 80495f6:	79 21                	jns    8049619 <bomb_connect+0x59>
 80495f8:	a1 40 c1 04 08       	mov    eax,ds:0x804c140
 80495fd:	50                   	push   eax
 80495fe:	6a 22                	push   0x22
 8049600:	6a 01                	push   0x1
 8049602:	68 0c 9c 04 08       	push   0x8049c0c
 8049607:	e8 c4 f1 ff ff       	call   80487d0 <fwrite@plt>
 804960c:	83 c4 10             	add    esp,0x10
 804960f:	83 ec 0c             	sub    esp,0xc
 8049612:	6a 01                	push   0x1
 8049614:	e8 e7 f1 ff ff       	call   8048800 <exit@plt>
 8049619:	83 ec 04             	sub    esp,0x4
 804961c:	6a 10                	push   0x10
 804961e:	6a 30                	push   0x30
 8049620:	8d 45 e4             	lea    eax,[ebp-0x1c]
 8049623:	50                   	push   eax
 8049624:	e8 57 f2 ff ff       	call   8048880 <memset@plt>
 8049629:	83 c4 10             	add    esp,0x10
 804962c:	66 c7 45 e4 02 00    	mov    WORD PTR [ebp-0x1c],0x2
 8049632:	83 ec 0c             	sub    esp,0xc
 8049635:	68 88 13 00 00       	push   0x1388
 804963a:	e8 81 f1 ff ff       	call   80487c0 <htons@plt>
 804963f:	83 c4 10             	add    esp,0x10
 8049642:	66 89 45 e6          	mov    WORD PTR [ebp-0x1a],ax
 8049646:	83 ec 04             	sub    esp,0x4
 8049649:	8d 45 e4             	lea    eax,[ebp-0x1c]
 804964c:	83 c0 04             	add    eax,0x4
 804964f:	50                   	push   eax
 8049650:	68 2f 9c 04 08       	push   0x8049c2f
 8049655:	6a 02                	push   0x2
 8049657:	e8 f4 f0 ff ff       	call   8048750 <inet_pton@plt>
 804965c:	83 c4 10             	add    esp,0x10
 804965f:	85 c0                	test   eax,eax
 8049661:	7f 21                	jg     8049684 <bomb_connect+0xc4>
 8049663:	a1 40 c1 04 08       	mov    eax,ds:0x804c140
 8049668:	50                   	push   eax
 8049669:	6a 19                	push   0x19
 804966b:	6a 01                	push   0x1
 804966d:	68 3e 9c 04 08       	push   0x8049c3e
 8049672:	e8 59 f1 ff ff       	call   80487d0 <fwrite@plt>
 8049677:	83 c4 10             	add    esp,0x10
 804967a:	83 ec 0c             	sub    esp,0xc
 804967d:	6a 01                	push   0x1
 804967f:	e8 7c f1 ff ff       	call   8048800 <exit@plt>
 8049684:	8b 45 d4             	mov    eax,DWORD PTR [ebp-0x2c]
 8049687:	8b 00                	mov    eax,DWORD PTR [eax]
 8049689:	83 ec 04             	sub    esp,0x4
 804968c:	6a 10                	push   0x10
 804968e:	8d 55 e4             	lea    edx,[ebp-0x1c]
 8049691:	52                   	push   edx
 8049692:	50                   	push   eax
 8049693:	e8 68 f2 ff ff       	call   8048900 <connect@plt>
 8049698:	83 c4 10             	add    esp,0x10
 804969b:	85 c0                	test   eax,eax
 804969d:	79 21                	jns    80496c0 <bomb_connect+0x100>
 804969f:	a1 40 c1 04 08       	mov    eax,ds:0x804c140
 80496a4:	50                   	push   eax
 80496a5:	6a 2c                	push   0x2c
 80496a7:	6a 01                	push   0x1
 80496a9:	68 58 9c 04 08       	push   0x8049c58
 80496ae:	e8 1d f1 ff ff       	call   80487d0 <fwrite@plt>
 80496b3:	83 c4 10             	add    esp,0x10
 80496b6:	83 ec 0c             	sub    esp,0xc
 80496b9:	6a 01                	push   0x1
 80496bb:	e8 40 f1 ff ff       	call   8048800 <exit@plt>
 80496c0:	90                   	nop
 80496c1:	8b 45 f4             	mov    eax,DWORD PTR [ebp-0xc]
 80496c4:	65 33 05 14 00 00 00 	xor    eax,DWORD PTR gs:0x14
 80496cb:	74 05                	je     80496d2 <bomb_connect+0x112>
 80496cd:	e8 de f0 ff ff       	call   80487b0 <__stack_chk_fail@plt>
 80496d2:	c9                   	leave  
 80496d3:	c3                   	ret    

080496d4 <bomb_send>:
 80496d4:	55                   	push   ebp
 80496d5:	89 e5                	mov    ebp,esp
 80496d7:	83 ec 28             	sub    esp,0x28
 80496da:	8b 45 08             	mov    eax,DWORD PTR [ebp+0x8]
 80496dd:	89 45 e4             	mov    DWORD PTR [ebp-0x1c],eax
 80496e0:	65 a1 14 00 00 00    	mov    eax,gs:0x14
 80496e6:	89 45 f4             	mov    DWORD PTR [ebp-0xc],eax
 80496e9:	31 c0                	xor    eax,eax
 80496eb:	83 ec 0c             	sub    esp,0xc
 80496ee:	8d 45 f0             	lea    eax,[ebp-0x10]
 80496f1:	50                   	push   eax
 80496f2:	e8 c9 fe ff ff       	call   80495c0 <bomb_connect>
 80496f7:	83 c4 10             	add    esp,0x10
 80496fa:	8b 55 0c             	mov    edx,DWORD PTR [ebp+0xc]
 80496fd:	8b 45 f0             	mov    eax,DWORD PTR [ebp-0x10]
 8049700:	83 ec 04             	sub    esp,0x4
 8049703:	52                   	push   edx
 8049704:	ff 75 e4             	push   DWORD PTR [ebp-0x1c]
 8049707:	50                   	push   eax
 8049708:	e8 63 f1 ff ff       	call   8048870 <write@plt>
 804970d:	83 c4 10             	add    esp,0x10
 8049710:	8b 45 f0             	mov    eax,DWORD PTR [ebp-0x10]
 8049713:	83 ec 0c             	sub    esp,0xc
 8049716:	50                   	push   eax
 8049717:	e8 17 00 00 00       	call   8049733 <bomb_close_socket>
 804971c:	83 c4 10             	add    esp,0x10
 804971f:	90                   	nop
 8049720:	8b 45 f4             	mov    eax,DWORD PTR [ebp-0xc]
 8049723:	65 33 05 14 00 00 00 	xor    eax,DWORD PTR gs:0x14
 804972a:	74 05                	je     8049731 <bomb_send+0x5d>
 804972c:	e8 7f f0 ff ff       	call   80487b0 <__stack_chk_fail@plt>
 8049731:	c9                   	leave  
 8049732:	c3                   	ret    

08049733 <bomb_close_socket>:
 8049733:	55                   	push   ebp
 8049734:	89 e5                	mov    ebp,esp
 8049736:	83 ec 08             	sub    esp,0x8
 8049739:	83 ec 08             	sub    esp,0x8
 804973c:	6a 02                	push   0x2
 804973e:	ff 75 08             	push   DWORD PTR [ebp+0x8]
 8049741:	e8 aa f1 ff ff       	call   80488f0 <shutdown@plt>
 8049746:	83 c4 10             	add    esp,0x10
 8049749:	90                   	nop
 804974a:	c9                   	leave  
 804974b:	c3                   	ret    

0804974c <create_protocol>:
 804974c:	55                   	push   ebp
 804974d:	89 e5                	mov    ebp,esp
 804974f:	57                   	push   edi
 8049750:	83 ec 44             	sub    esp,0x44
 8049753:	8b 45 0c             	mov    eax,DWORD PTR [ebp+0xc]
 8049756:	8b 55 08             	mov    edx,DWORD PTR [ebp+0x8]
 8049759:	89 55 c4             	mov    DWORD PTR [ebp-0x3c],edx
 804975c:	88 45 c0             	mov    BYTE PTR [ebp-0x40],al
 804975f:	8b 45 10             	mov    eax,DWORD PTR [ebp+0x10]
 8049762:	89 45 bc             	mov    DWORD PTR [ebp-0x44],eax
 8049765:	65 a1 14 00 00 00    	mov    eax,gs:0x14
 804976b:	89 45 f4             	mov    DWORD PTR [ebp-0xc],eax
 804976e:	31 c0                	xor    eax,eax
 8049770:	8b 45 c4             	mov    eax,DWORD PTR [ebp-0x3c]
 8049773:	0f b6 55 c0          	movzx  edx,BYTE PTR [ebp-0x40]
 8049777:	88 10                	mov    BYTE PTR [eax],dl
 8049779:	8b 45 c4             	mov    eax,DWORD PTR [ebp-0x3c]
 804977c:	83 c0 01             	add    eax,0x1
 804977f:	8b 15 68 c1 04 08    	mov    edx,DWORD PTR ds:0x804c168
 8049785:	83 c2 30             	add    edx,0x30
 8049788:	88 10                	mov    BYTE PTR [eax],dl
 804978a:	8b 45 c4             	mov    eax,DWORD PTR [ebp-0x3c]
 804978d:	83 c0 02             	add    eax,0x2
 8049790:	c6 00 00             	mov    BYTE PTR [eax],0x0
 8049793:	8b 45 c4             	mov    eax,DWORD PTR [ebp-0x3c]
 8049796:	b9 ff ff ff ff       	mov    ecx,0xffffffff
 804979b:	89 c2                	mov    edx,eax
 804979d:	b8 00 00 00 00       	mov    eax,0x0
 80497a2:	89 d7                	mov    edi,edx
 80497a4:	f2 ae                	repnz scas al,BYTE PTR es:[edi]
 80497a6:	89 c8                	mov    eax,ecx
 80497a8:	f7 d0                	not    eax
 80497aa:	8d 50 ff             	lea    edx,[eax-0x1]
 80497ad:	8b 45 c4             	mov    eax,DWORD PTR [ebp-0x3c]
 80497b0:	01 d0                	add    eax,edx
 80497b2:	c7 00 31 39 39 39    	mov    DWORD PTR [eax],0x39393931
 80497b8:	c7 40 04 30 38 31 32 	mov    DWORD PTR [eax+0x4],0x32313830
 80497bf:	c6 40 08 00          	mov    BYTE PTR [eax+0x8],0x0
 80497c3:	83 ec 0c             	sub    esp,0xc
 80497c6:	6a 00                	push   0x0
 80497c8:	e8 a3 ef ff ff       	call   8048770 <time@plt>
 80497cd:	83 c4 10             	add    esp,0x10
 80497d0:	89 45 d0             	mov    DWORD PTR [ebp-0x30],eax
 80497d3:	83 ec 0c             	sub    esp,0xc
 80497d6:	8d 45 d0             	lea    eax,[ebp-0x30]
 80497d9:	50                   	push   eax
 80497da:	e8 51 f0 ff ff       	call   8048830 <localtime@plt>
 80497df:	83 c4 10             	add    esp,0x10
 80497e2:	50                   	push   eax
 80497e3:	68 06 9c 04 08       	push   0x8049c06
 80497e8:	6a 15                	push   0x15
 80497ea:	8d 45 df             	lea    eax,[ebp-0x21]
 80497ed:	50                   	push   eax
 80497ee:	e8 2d f0 ff ff       	call   8048820 <strftime@plt>
 80497f3:	83 c4 10             	add    esp,0x10
 80497f6:	83 ec 04             	sub    esp,0x4
 80497f9:	6a 0a                	push   0xa
 80497fb:	8d 45 df             	lea    eax,[ebp-0x21]
 80497fe:	50                   	push   eax
 80497ff:	ff 75 c4             	push   DWORD PTR [ebp-0x3c]
 8049802:	e8 19 f1 ff ff       	call   8048920 <strncat@plt>
 8049807:	83 c4 10             	add    esp,0x10
 804980a:	83 7d bc 00          	cmp    DWORD PTR [ebp-0x44],0x0
 804980e:	74 13                	je     8049823 <create_protocol+0xd7>
 8049810:	83 ec 04             	sub    esp,0x4
 8049813:	6a 20                	push   0x20
 8049815:	ff 75 bc             	push   DWORD PTR [ebp-0x44]
 8049818:	ff 75 c4             	push   DWORD PTR [ebp-0x3c]
 804981b:	e8 00 f1 ff ff       	call   8048920 <strncat@plt>
 8049820:	83 c4 10             	add    esp,0x10
 8049823:	83 ec 04             	sub    esp,0x4
 8049826:	8d 45 d4             	lea    eax,[ebp-0x2c]
 8049829:	50                   	push   eax
 804982a:	6a 3f                	push   0x3f
 804982c:	ff 75 c4             	push   DWORD PTR [ebp-0x3c]
 804982f:	e8 2f 00 00 00       	call   8049863 <base64_encode>
 8049834:	83 c4 10             	add    esp,0x10
 8049837:	89 45 d8             	mov    DWORD PTR [ebp-0x28],eax
 804983a:	8b 45 d4             	mov    eax,DWORD PTR [ebp-0x2c]
 804983d:	83 ec 08             	sub    esp,0x8
 8049840:	50                   	push   eax
 8049841:	ff 75 d8             	push   DWORD PTR [ebp-0x28]
 8049844:	e8 8b fe ff ff       	call   80496d4 <bomb_send>
 8049849:	83 c4 10             	add    esp,0x10
 804984c:	90                   	nop
 804984d:	8b 45 f4             	mov    eax,DWORD PTR [ebp-0xc]
 8049850:	65 33 05 14 00 00 00 	xor    eax,DWORD PTR gs:0x14
 8049857:	74 05                	je     804985e <create_protocol+0x112>
 8049859:	e8 52 ef ff ff       	call   80487b0 <__stack_chk_fail@plt>
 804985e:	8b 7d fc             	mov    edi,DWORD PTR [ebp-0x4]
 8049861:	c9                   	leave  
 8049862:	c3                   	ret    

08049863 <base64_encode>:
 8049863:	55                   	push   ebp
 8049864:	89 e5                	mov    ebp,esp
 8049866:	83 ec 28             	sub    esp,0x28
 8049869:	8b 45 0c             	mov    eax,DWORD PTR [ebp+0xc]
 804986c:	8d 48 02             	lea    ecx,[eax+0x2]
 804986f:	ba 56 55 55 55       	mov    edx,0x55555556
 8049874:	89 c8                	mov    eax,ecx
 8049876:	f7 ea                	imul   edx
 8049878:	89 c8                	mov    eax,ecx
 804987a:	c1 f8 1f             	sar    eax,0x1f
 804987d:	29 c2                	sub    edx,eax
 804987f:	89 d0                	mov    eax,edx
 8049881:	8d 14 85 00 00 00 00 	lea    edx,[eax*4+0x0]
 8049888:	8b 45 10             	mov    eax,DWORD PTR [ebp+0x10]
 804988b:	89 10                	mov    DWORD PTR [eax],edx
 804988d:	8b 45 10             	mov    eax,DWORD PTR [ebp+0x10]
 8049890:	8b 00                	mov    eax,DWORD PTR [eax]
 8049892:	83 ec 0c             	sub    esp,0xc
 8049895:	50                   	push   eax
 8049896:	e8 45 ef ff ff       	call   80487e0 <malloc@plt>
 804989b:	83 c4 10             	add    esp,0x10
 804989e:	89 45 e4             	mov    DWORD PTR [ebp-0x1c],eax
 80498a1:	83 7d e4 00          	cmp    DWORD PTR [ebp-0x1c],0x0
 80498a5:	75 0a                	jne    80498b1 <base64_encode+0x4e>
 80498a7:	b8 00 00 00 00       	mov    eax,0x0
 80498ac:	e9 84 01 00 00       	jmp    8049a35 <base64_encode+0x1d2>
 80498b1:	c7 45 dc 00 00 00 00 	mov    DWORD PTR [ebp-0x24],0x0
 80498b8:	c7 45 e0 00 00 00 00 	mov    DWORD PTR [ebp-0x20],0x0
 80498bf:	e9 15 01 00 00       	jmp    80499d9 <base64_encode+0x176>
 80498c4:	8b 45 dc             	mov    eax,DWORD PTR [ebp-0x24]
 80498c7:	3b 45 0c             	cmp    eax,DWORD PTR [ebp+0xc]
 80498ca:	7d 18                	jge    80498e4 <base64_encode+0x81>
 80498cc:	8b 45 dc             	mov    eax,DWORD PTR [ebp-0x24]
 80498cf:	8d 50 01             	lea    edx,[eax+0x1]
 80498d2:	89 55 dc             	mov    DWORD PTR [ebp-0x24],edx
 80498d5:	89 c2                	mov    edx,eax
 80498d7:	8b 45 08             	mov    eax,DWORD PTR [ebp+0x8]
 80498da:	01 d0                	add    eax,edx
 80498dc:	0f b6 00             	movzx  eax,BYTE PTR [eax]
 80498df:	0f b6 c0             	movzx  eax,al
 80498e2:	eb 05                	jmp    80498e9 <base64_encode+0x86>
 80498e4:	b8 00 00 00 00       	mov    eax,0x0
 80498e9:	89 45 e8             	mov    DWORD PTR [ebp-0x18],eax
 80498ec:	8b 45 dc             	mov    eax,DWORD PTR [ebp-0x24]
 80498ef:	3b 45 0c             	cmp    eax,DWORD PTR [ebp+0xc]
 80498f2:	7d 18                	jge    804990c <base64_encode+0xa9>
 80498f4:	8b 45 dc             	mov    eax,DWORD PTR [ebp-0x24]
 80498f7:	8d 50 01             	lea    edx,[eax+0x1]
 80498fa:	89 55 dc             	mov    DWORD PTR [ebp-0x24],edx
 80498fd:	89 c2                	mov    edx,eax
 80498ff:	8b 45 08             	mov    eax,DWORD PTR [ebp+0x8]
 8049902:	01 d0                	add    eax,edx
 8049904:	0f b6 00             	movzx  eax,BYTE PTR [eax]
 8049907:	0f b6 c0             	movzx  eax,al
 804990a:	eb 05                	jmp    8049911 <base64_encode+0xae>
 804990c:	b8 00 00 00 00       	mov    eax,0x0
 8049911:	89 45 ec             	mov    DWORD PTR [ebp-0x14],eax
 8049914:	8b 45 dc             	mov    eax,DWORD PTR [ebp-0x24]
 8049917:	3b 45 0c             	cmp    eax,DWORD PTR [ebp+0xc]
 804991a:	7d 18                	jge    8049934 <base64_encode+0xd1>
 804991c:	8b 45 dc             	mov    eax,DWORD PTR [ebp-0x24]
 804991f:	8d 50 01             	lea    edx,[eax+0x1]
 8049922:	89 55 dc             	mov    DWORD PTR [ebp-0x24],edx
 8049925:	89 c2                	mov    edx,eax
 8049927:	8b 45 08             	mov    eax,DWORD PTR [ebp+0x8]
 804992a:	01 d0                	add    eax,edx
 804992c:	0f b6 00             	movzx  eax,BYTE PTR [eax]
 804992f:	0f b6 c0             	movzx  eax,al
 8049932:	eb 05                	jmp    8049939 <base64_encode+0xd6>
 8049934:	b8 00 00 00 00       	mov    eax,0x0
 8049939:	89 45 f0             	mov    DWORD PTR [ebp-0x10],eax
 804993c:	8b 45 e8             	mov    eax,DWORD PTR [ebp-0x18]
 804993f:	c1 e0 10             	shl    eax,0x10
 8049942:	89 c2                	mov    edx,eax
 8049944:	8b 45 ec             	mov    eax,DWORD PTR [ebp-0x14]
 8049947:	c1 e0 08             	shl    eax,0x8
 804994a:	01 c2                	add    edx,eax
 804994c:	8b 45 f0             	mov    eax,DWORD PTR [ebp-0x10]
 804994f:	01 d0                	add    eax,edx
 8049951:	89 45 f4             	mov    DWORD PTR [ebp-0xc],eax
 8049954:	8b 45 e0             	mov    eax,DWORD PTR [ebp-0x20]
 8049957:	8d 50 01             	lea    edx,[eax+0x1]
 804995a:	89 55 e0             	mov    DWORD PTR [ebp-0x20],edx
 804995d:	89 c2                	mov    edx,eax
 804995f:	8b 45 e4             	mov    eax,DWORD PTR [ebp-0x1c]
 8049962:	01 c2                	add    edx,eax
 8049964:	8b 45 f4             	mov    eax,DWORD PTR [ebp-0xc]
 8049967:	c1 e8 12             	shr    eax,0x12
 804996a:	83 e0 3f             	and    eax,0x3f
 804996d:	0f b6 80 e0 c0 04 08 	movzx  eax,BYTE PTR [eax+0x804c0e0]
 8049974:	88 02                	mov    BYTE PTR [edx],al
 8049976:	8b 45 e0             	mov    eax,DWORD PTR [ebp-0x20]
 8049979:	8d 50 01             	lea    edx,[eax+0x1]
 804997c:	89 55 e0             	mov    DWORD PTR [ebp-0x20],edx
 804997f:	89 c2                	mov    edx,eax
 8049981:	8b 45 e4             	mov    eax,DWORD PTR [ebp-0x1c]
 8049984:	01 c2                	add    edx,eax
 8049986:	8b 45 f4             	mov    eax,DWORD PTR [ebp-0xc]
 8049989:	c1 e8 0c             	shr    eax,0xc
 804998c:	83 e0 3f             	and    eax,0x3f
 804998f:	0f b6 80 e0 c0 04 08 	movzx  eax,BYTE PTR [eax+0x804c0e0]
 8049996:	88 02                	mov    BYTE PTR [edx],al
 8049998:	8b 45 e0             	mov    eax,DWORD PTR [ebp-0x20]
 804999b:	8d 50 01             	lea    edx,[eax+0x1]
 804999e:	89 55 e0             	mov    DWORD PTR [ebp-0x20],edx
 80499a1:	89 c2                	mov    edx,eax
 80499a3:	8b 45 e4             	mov    eax,DWORD PTR [ebp-0x1c]
 80499a6:	01 c2                	add    edx,eax
 80499a8:	8b 45 f4             	mov    eax,DWORD PTR [ebp-0xc]
 80499ab:	c1 e8 06             	shr    eax,0x6
 80499ae:	83 e0 3f             	and    eax,0x3f
 80499b1:	0f b6 80 e0 c0 04 08 	movzx  eax,BYTE PTR [eax+0x804c0e0]
 80499b8:	88 02                	mov    BYTE PTR [edx],al
 80499ba:	8b 45 e0             	mov    eax,DWORD PTR [ebp-0x20]
 80499bd:	8d 50 01             	lea    edx,[eax+0x1]
 80499c0:	89 55 e0             	mov    DWORD PTR [ebp-0x20],edx
 80499c3:	89 c2                	mov    edx,eax
 80499c5:	8b 45 e4             	mov    eax,DWORD PTR [ebp-0x1c]
 80499c8:	01 c2                	add    edx,eax
 80499ca:	8b 45 f4             	mov    eax,DWORD PTR [ebp-0xc]
 80499cd:	83 e0 3f             	and    eax,0x3f
 80499d0:	0f b6 80 e0 c0 04 08 	movzx  eax,BYTE PTR [eax+0x804c0e0]
 80499d7:	88 02                	mov    BYTE PTR [edx],al
 80499d9:	8b 45 dc             	mov    eax,DWORD PTR [ebp-0x24]
 80499dc:	3b 45 0c             	cmp    eax,DWORD PTR [ebp+0xc]
 80499df:	0f 8c df fe ff ff    	jl     80498c4 <base64_encode+0x61>
 80499e5:	c7 45 dc 00 00 00 00 	mov    DWORD PTR [ebp-0x24],0x0
 80499ec:	eb 19                	jmp    8049a07 <base64_encode+0x1a4>
 80499ee:	8b 45 10             	mov    eax,DWORD PTR [ebp+0x10]
 80499f1:	8b 00                	mov    eax,DWORD PTR [eax]
 80499f3:	83 e8 01             	sub    eax,0x1
 80499f6:	2b 45 dc             	sub    eax,DWORD PTR [ebp-0x24]
 80499f9:	89 c2                	mov    edx,eax
 80499fb:	8b 45 e4             	mov    eax,DWORD PTR [ebp-0x1c]
 80499fe:	01 d0                	add    eax,edx
 8049a00:	c6 00 3d             	mov    BYTE PTR [eax],0x3d
 8049a03:	83 45 dc 01          	add    DWORD PTR [ebp-0x24],0x1
 8049a07:	8b 4d 0c             	mov    ecx,DWORD PTR [ebp+0xc]
 8049a0a:	ba 56 55 55 55       	mov    edx,0x55555556
 8049a0f:	89 c8                	mov    eax,ecx
 8049a11:	f7 ea                	imul   edx
 8049a13:	89 c8                	mov    eax,ecx
 8049a15:	c1 f8 1f             	sar    eax,0x1f
 8049a18:	29 c2                	sub    edx,eax
 8049a1a:	89 d0                	mov    eax,edx
 8049a1c:	89 c2                	mov    edx,eax
 8049a1e:	01 d2                	add    edx,edx
 8049a20:	01 c2                	add    edx,eax
 8049a22:	89 c8                	mov    eax,ecx
 8049a24:	29 d0                	sub    eax,edx
 8049a26:	8b 04 85 20 c1 04 08 	mov    eax,DWORD PTR [eax*4+0x804c120]
 8049a2d:	3b 45 dc             	cmp    eax,DWORD PTR [ebp-0x24]
 8049a30:	7f bc                	jg     80499ee <base64_encode+0x18b>
 8049a32:	8b 45 e4             	mov    eax,DWORD PTR [ebp-0x1c]
 8049a35:	c9                   	leave  
 8049a36:	c3                   	ret    
 8049a37:	66 90                	xchg   ax,ax
 8049a39:	66 90                	xchg   ax,ax
 8049a3b:	66 90                	xchg   ax,ax
 8049a3d:	66 90                	xchg   ax,ax
 8049a3f:	90                   	nop

08049a40 <__libc_csu_init>:
 8049a40:	55                   	push   ebp
 8049a41:	57                   	push   edi
 8049a42:	56                   	push   esi
 8049a43:	53                   	push   ebx
 8049a44:	e8 27 ef ff ff       	call   8048970 <__x86.get_pc_thunk.bx>
 8049a49:	81 c3 b7 25 00 00    	add    ebx,0x25b7
 8049a4f:	83 ec 0c             	sub    esp,0xc
 8049a52:	8b 6c 24 20          	mov    ebp,DWORD PTR [esp+0x20]
 8049a56:	8d b3 0c ff ff ff    	lea    esi,[ebx-0xf4]
 8049a5c:	e8 9b ec ff ff       	call   80486fc <_init>
 8049a61:	8d 83 08 ff ff ff    	lea    eax,[ebx-0xf8]
 8049a67:	29 c6                	sub    esi,eax
 8049a69:	c1 fe 02             	sar    esi,0x2
 8049a6c:	85 f6                	test   esi,esi
 8049a6e:	74 25                	je     8049a95 <__libc_csu_init+0x55>
 8049a70:	31 ff                	xor    edi,edi
 8049a72:	8d b6 00 00 00 00    	lea    esi,[esi+0x0]
 8049a78:	83 ec 04             	sub    esp,0x4
 8049a7b:	ff 74 24 2c          	push   DWORD PTR [esp+0x2c]
 8049a7f:	ff 74 24 2c          	push   DWORD PTR [esp+0x2c]
 8049a83:	55                   	push   ebp
 8049a84:	ff 94 bb 08 ff ff ff 	call   DWORD PTR [ebx+edi*4-0xf8]
 8049a8b:	83 c7 01             	add    edi,0x1
 8049a8e:	83 c4 10             	add    esp,0x10
 8049a91:	39 f7                	cmp    edi,esi
 8049a93:	75 e3                	jne    8049a78 <__libc_csu_init+0x38>
 8049a95:	83 c4 0c             	add    esp,0xc
 8049a98:	5b                   	pop    ebx
 8049a99:	5e                   	pop    esi
 8049a9a:	5f                   	pop    edi
 8049a9b:	5d                   	pop    ebp
 8049a9c:	c3                   	ret    
 8049a9d:	8d 76 00             	lea    esi,[esi+0x0]

08049aa0 <__libc_csu_fini>:
 8049aa0:	f3 c3                	repz ret 

Disassembly of section .fini:

08049aa4 <_fini>:
 8049aa4:	53                   	push   ebx
 8049aa5:	83 ec 08             	sub    esp,0x8
 8049aa8:	e8 c3 ee ff ff       	call   8048970 <__x86.get_pc_thunk.bx>
 8049aad:	81 c3 53 25 00 00    	add    ebx,0x2553
 8049ab3:	83 c4 08             	add    esp,0x8
 8049ab6:	5b                   	pop    ebx
 8049ab7:	c3                   	ret    
